(dp1
S'output'
p2
S"<type 'exceptions.IOError'> [Errno 2] No such file or directory: 'data.csv'"
p3
sS'layer'
p4
S'/Users/robertdo/hiremeintech/applications/hiremeintech/controllers/default.py'
p5
sS'code'
p6
S"# -*- coding: utf-8 -*-\n### required - do no delete\ndef user(): return dict(form=auth())\ndef download(): return response.download(request,db)\ndef call(): return service()\n### end requires\ndef index():\n    if open('data.csv', 'r'):\n        db(db.jobs.id>0).delete()\n        db.jobs.import_from_csv_file(open('data.csv', 'r'))\n    all_jobs = db(db.jobs.id>0).select()\n    return dict(all_jobs=all_jobs)\n\ndef info():\n    job = db.jobs[request.args(0)]\n    #if not job: raise HTTP(404)\n    return dict(job=job)\n\ndef error():\n    return dict()\n\n\nresponse._vars=response._caller(index)\n"
p7
sS'snapshot'
p8
(dp9
S'exception'
p10
(dp11
S'__getslice__'
p12
S"<method-wrapper '__getslice__' of exceptions.IOError object>"
p13
sS'__str__'
p14
S"<method-wrapper '__str__' of exceptions.IOError object>"
p15
sS'__reduce__'
p16
S'<built-in method __reduce__ of exceptions.IOError object>'
p17
sS'__dict__'
p18
S'{}'
p19
sS'__sizeof__'
p20
S'<built-in method __sizeof__ of exceptions.IOError object>'
p21
sS'__init__'
p22
S"<method-wrapper '__init__' of exceptions.IOError object>"
p23
sS'__setattr__'
p24
S"<method-wrapper '__setattr__' of exceptions.IOError object>"
p25
sS'__reduce_ex__'
p26
S'<built-in method __reduce_ex__ of exceptions.IOError object>'
p27
sS'__new__'
p28
S'<built-in method __new__ of type object>'
p29
sS'errno'
p30
S'2'
sS'__format__'
p31
S'<built-in method __format__ of exceptions.IOError object>'
p32
sS'__class__'
p33
S"<type 'exceptions.IOError'>"
p34
sS'filename'
p35
S"'data.csv'"
p36
sS'__doc__'
p37
S"'I/O operation failed.'"
p38
sS'__getitem__'
p39
S"<method-wrapper '__getitem__' of exceptions.IOError object>"
p40
sS'__setstate__'
p41
S'<built-in method __setstate__ of exceptions.IOError object>'
p42
sS'__getattribute__'
p43
S"<method-wrapper '__getattribute__' of exceptions.IOError object>"
p44
sS'args'
p45
S"(2, 'No such file or directory')"
p46
sS'__subclasshook__'
p47
S'<built-in method __subclasshook__ of type object>'
p48
sS'__unicode__'
p49
S'<built-in method __unicode__ of exceptions.IOError object>'
p50
sS'strerror'
p51
S"'No such file or directory'"
p52
sS'__delattr__'
p53
S"<method-wrapper '__delattr__' of exceptions.IOError object>"
p54
sS'__repr__'
p55
S"<method-wrapper '__repr__' of exceptions.IOError object>"
p56
sS'__hash__'
p57
S"<method-wrapper '__hash__' of exceptions.IOError object>"
p58
ssS'evalue'
p59
S"[Errno 2] No such file or directory: 'data.csv'"
p60
sS'request'
p61
ccopy_reg
_reconstructor
p62
(cgluon.html
BEAUTIFY
p63
c__builtin__
object
p64
NtRp65
(dp66
S'attributes'
p67
(dp68
sS'components'
p69
(lp70
g62
(cgluon.html
TABLE
p71
g64
NtRp72
(dp73
g67
(dp74
S'level'
p75
I5
ssS'parent'
p76
Nsg69
(lp77
g62
(cgluon.html
TR
p78
g64
NtRp79
(dp80
g67
(dp81
sg76
g72
sg69
(lp82
g62
(cgluon.html
TD
p83
g64
NtRp84
(dp85
g67
(dp86
S'_style'
p87
S'font-weight:bold;vertical-align:top'
p88
ssg76
g79
sg69
(lp89
S'ajax'
p90
asbag62
(g83
g64
NtRp91
(dp92
g67
(dp93
S'_valign'
p94
S'top'
p95
ssg76
g79
sg69
(lp96
S':'
asbag62
(g83
g64
NtRp97
(dp98
g67
(dp99
sg76
g79
sg69
(lp100
g62
(g63
g64
NtRp101
(dp102
g67
(dp103
g75
I5
ssg76
g97
sg69
(lp104
S'False'
p105
asbasbasbag62
(g78
g64
NtRp106
(dp107
g67
(dp108
sg76
g72
sg69
(lp109
g62
(g83
g64
NtRp110
(dp111
g67
(dp112
g87
g88
ssg76
g106
sg69
(lp113
S'application'
p114
asbag62
(g83
g64
NtRp115
(dp116
g67
(dp117
g94
g95
ssg76
g106
sg69
(lp118
S':'
asbag62
(g83
g64
NtRp119
(dp120
g67
(dp121
sg76
g106
sg69
(lp122
g62
(g63
g64
NtRp123
(dp124
g67
(dp125
g75
I5
ssg76
g119
sg69
(lp126
S'hiremeintech'
p127
asbasbasbag62
(g78
g64
NtRp128
(dp129
g67
(dp130
sg76
g72
sg69
(lp131
g62
(g83
g64
NtRp132
(dp133
g67
(dp134
g87
g88
ssg76
g128
sg69
(lp135
g45
asbag62
(g83
g64
NtRp136
(dp137
g67
(dp138
g94
g95
ssg76
g128
sg69
(lp139
S':'
asbag62
(g83
g64
NtRp140
(dp141
g67
(dp142
sg76
g128
sg69
(lp143
g62
(g63
g64
NtRp144
(dp145
g67
(dp146
g75
I5
ssg76
g140
sg69
(lp147
g62
(g71
g64
NtRp148
(dp149
g67
(dp150
g75
I4
ssg76
Nsg69
(lp151
sbasbasbasbag62
(g78
g64
NtRp152
(dp153
g67
(dp154
sg76
g72
sg69
(lp155
g62
(g83
g64
NtRp156
(dp157
g67
(dp158
g87
g88
ssg76
g152
sg69
(lp159
S'body'
p160
asbag62
(g83
g64
NtRp161
(dp162
g67
(dp163
g94
g95
ssg76
g152
sg69
(lp164
S':'
asbag62
(g83
g64
NtRp165
(dp166
g67
(dp167
sg76
g152
sg69
(lp168
g62
(g63
g64
NtRp169
(dp170
g67
(dp171
g75
I5
ssg76
g165
sg69
(lp172
S'<cStringIO.StringO object at 0x10ed7a180>'
p173
asbasbasbag62
(g78
g64
NtRp174
(dp175
g67
(dp176
sg76
g72
sg69
(lp177
g62
(g83
g64
NtRp178
(dp179
g67
(dp180
g87
g88
ssg76
g174
sg69
(lp181
S'client'
p182
asbag62
(g83
g64
NtRp183
(dp184
g67
(dp185
g94
g95
ssg76
g174
sg69
(lp186
S':'
asbag62
(g83
g64
NtRp187
(dp188
g67
(dp189
sg76
g174
sg69
(lp190
g62
(g63
g64
NtRp191
(dp192
g67
(dp193
g75
I5
ssg76
g187
sg69
(lp194
S'127.0.0.1'
p195
asbasbasbag62
(g78
g64
NtRp196
(dp197
g67
(dp198
sg76
g72
sg69
(lp199
g62
(g83
g64
NtRp200
(dp201
g67
(dp202
g87
g88
ssg76
g196
sg69
(lp203
S'controller'
p204
asbag62
(g83
g64
NtRp205
(dp206
g67
(dp207
g94
g95
ssg76
g196
sg69
(lp208
S':'
asbag62
(g83
g64
NtRp209
(dp210
g67
(dp211
sg76
g196
sg69
(lp212
g62
(g63
g64
NtRp213
(dp214
g67
(dp215
g75
I5
ssg76
g209
sg69
(lp216
S'default'
p217
asbasbasbag62
(g78
g64
NtRp218
(dp219
g67
(dp220
sg76
g72
sg69
(lp221
g62
(g83
g64
NtRp222
(dp223
g67
(dp224
g87
g88
ssg76
g218
sg69
(lp225
S'cookies'
p226
asbag62
(g83
g64
NtRp227
(dp228
g67
(dp229
g94
g95
ssg76
g218
sg69
(lp230
S':'
asbag62
(g83
g64
NtRp231
(dp232
g67
(dp233
sg76
g218
sg69
(lp234
g62
(g63
g64
NtRp235
(dp236
g67
(dp237
g75
I5
ssg76
g231
sg69
(lp238
g62
(g71
g64
NtRp239
(dp240
g67
(dp241
g75
I4
ssg76
Nsg69
(lp242
g62
(g78
g64
NtRp243
(dp244
g67
(dp245
sg76
g239
sg69
(lp246
g62
(g83
g64
NtRp247
(dp248
g67
(dp249
g87
g88
ssg76
g243
sg69
(lp250
S'session_id_admin'
p251
asbag62
(g83
g64
NtRp252
(dp253
g67
(dp254
g94
g95
ssg76
g243
sg69
(lp255
S':'
asbag62
(g83
g64
NtRp256
(dp257
g67
(dp258
sg76
g243
sg69
(lp259
g62
(g63
g64
NtRp260
(dp261
g67
(dp262
g75
I4
ssg76
g256
sg69
(lp263
g62
(g71
g64
NtRp264
(dp265
g67
(dp266
g75
I3
ssg76
Nsg69
(lp267
g62
(g78
g64
NtRp268
(dp269
g67
(dp270
sg76
g264
sg69
(lp271
g62
(g83
g64
NtRp272
(dp273
g67
(dp274
g87
g88
ssg76
g268
sg69
(lp275
S'comment'
p276
asbag62
(g83
g64
NtRp277
(dp278
g67
(dp279
g94
g95
ssg76
g268
sg69
(lp280
S':'
asbag62
(g83
g64
NtRp281
(dp282
g67
(dp283
sg76
g268
sg69
(lp284
g62
(g63
g64
NtRp285
(dp286
g67
(dp287
g75
I3
ssg76
g281
sg69
(lp288
S''
asbasbasbag62
(g78
g64
NtRp289
(dp290
g67
(dp291
sg76
g264
sg69
(lp292
g62
(g83
g64
NtRp293
(dp294
g67
(dp295
g87
g88
ssg76
g289
sg69
(lp296
S'domain'
p297
asbag62
(g83
g64
NtRp298
(dp299
g67
(dp300
g94
g95
ssg76
g289
sg69
(lp301
S':'
asbag62
(g83
g64
NtRp302
(dp303
g67
(dp304
sg76
g289
sg69
(lp305
g62
(g63
g64
NtRp306
(dp307
g67
(dp308
g75
I3
ssg76
g302
sg69
(lp309
S''
asbasbasbag62
(g78
g64
NtRp310
(dp311
g67
(dp312
sg76
g264
sg69
(lp313
g62
(g83
g64
NtRp314
(dp315
g67
(dp316
g87
g88
ssg76
g310
sg69
(lp317
S'expires'
p318
asbag62
(g83
g64
NtRp319
(dp320
g67
(dp321
g94
g95
ssg76
g310
sg69
(lp322
S':'
asbag62
(g83
g64
NtRp323
(dp324
g67
(dp325
sg76
g310
sg69
(lp326
g62
(g63
g64
NtRp327
(dp328
g67
(dp329
g75
I3
ssg76
g323
sg69
(lp330
S''
asbasbasbag62
(g78
g64
NtRp331
(dp332
g67
(dp333
sg76
g264
sg69
(lp334
g62
(g83
g64
NtRp335
(dp336
g67
(dp337
g87
g88
ssg76
g331
sg69
(lp338
S'httponly'
p339
asbag62
(g83
g64
NtRp340
(dp341
g67
(dp342
g94
g95
ssg76
g331
sg69
(lp343
S':'
asbag62
(g83
g64
NtRp344
(dp345
g67
(dp346
sg76
g331
sg69
(lp347
g62
(g63
g64
NtRp348
(dp349
g67
(dp350
g75
I3
ssg76
g344
sg69
(lp351
S''
asbasbasbag62
(g78
g64
NtRp352
(dp353
g67
(dp354
sg76
g264
sg69
(lp355
g62
(g83
g64
NtRp356
(dp357
g67
(dp358
g87
g88
ssg76
g352
sg69
(lp359
S'max-age'
p360
asbag62
(g83
g64
NtRp361
(dp362
g67
(dp363
g94
g95
ssg76
g352
sg69
(lp364
S':'
asbag62
(g83
g64
NtRp365
(dp366
g67
(dp367
sg76
g352
sg69
(lp368
g62
(g63
g64
NtRp369
(dp370
g67
(dp371
g75
I3
ssg76
g365
sg69
(lp372
S''
asbasbasbag62
(g78
g64
NtRp373
(dp374
g67
(dp375
sg76
g264
sg69
(lp376
g62
(g83
g64
NtRp377
(dp378
g67
(dp379
g87
g88
ssg76
g373
sg69
(lp380
S'path'
p381
asbag62
(g83
g64
NtRp382
(dp383
g67
(dp384
g94
g95
ssg76
g373
sg69
(lp385
S':'
asbag62
(g83
g64
NtRp386
(dp387
g67
(dp388
sg76
g373
sg69
(lp389
g62
(g63
g64
NtRp390
(dp391
g67
(dp392
g75
I3
ssg76
g386
sg69
(lp393
S''
asbasbasbag62
(g78
g64
NtRp394
(dp395
g67
(dp396
sg76
g264
sg69
(lp397
g62
(g83
g64
NtRp398
(dp399
g67
(dp400
g87
g88
ssg76
g394
sg69
(lp401
S'secure'
p402
asbag62
(g83
g64
NtRp403
(dp404
g67
(dp405
g94
g95
ssg76
g394
sg69
(lp406
S':'
asbag62
(g83
g64
NtRp407
(dp408
g67
(dp409
sg76
g394
sg69
(lp410
g62
(g63
g64
NtRp411
(dp412
g67
(dp413
g75
I3
ssg76
g407
sg69
(lp414
S''
asbasbasbag62
(g78
g64
NtRp415
(dp416
g67
(dp417
sg76
g264
sg69
(lp418
g62
(g83
g64
NtRp419
(dp420
g67
(dp421
g87
g88
ssg76
g415
sg69
(lp422
S'version'
p423
asbag62
(g83
g64
NtRp424
(dp425
g67
(dp426
g94
g95
ssg76
g415
sg69
(lp427
S':'
asbag62
(g83
g64
NtRp428
(dp429
g67
(dp430
sg76
g415
sg69
(lp431
g62
(g63
g64
NtRp432
(dp433
g67
(dp434
g75
I3
ssg76
g428
sg69
(lp435
S''
asbasbasbasbasbasbasbag62
(g78
g64
NtRp436
(dp437
g67
(dp438
sg76
g239
sg69
(lp439
g62
(g83
g64
NtRp440
(dp441
g67
(dp442
g87
g88
ssg76
g436
sg69
(lp443
S'session_id_hiremeintech'
p444
asbag62
(g83
g64
NtRp445
(dp446
g67
(dp447
g94
g95
ssg76
g436
sg69
(lp448
S':'
asbag62
(g83
g64
NtRp449
(dp450
g67
(dp451
sg76
g436
sg69
(lp452
g62
(g63
g64
NtRp453
(dp454
g67
(dp455
g75
I4
ssg76
g449
sg69
(lp456
g62
(g71
g64
NtRp457
(dp458
g67
(dp459
g75
I3
ssg76
Nsg69
(lp460
g62
(g78
g64
NtRp461
(dp462
g67
(dp463
sg76
g457
sg69
(lp464
g62
(g83
g64
NtRp465
(dp466
g67
(dp467
g87
g88
ssg76
g461
sg69
(lp468
g276
asbag62
(g83
g64
NtRp469
(dp470
g67
(dp471
g94
g95
ssg76
g461
sg69
(lp472
S':'
asbag62
(g83
g64
NtRp473
(dp474
g67
(dp475
sg76
g461
sg69
(lp476
g62
(g63
g64
NtRp477
(dp478
g67
(dp479
g75
I3
ssg76
g473
sg69
(lp480
S''
asbasbasbag62
(g78
g64
NtRp481
(dp482
g67
(dp483
sg76
g457
sg69
(lp484
g62
(g83
g64
NtRp485
(dp486
g67
(dp487
g87
g88
ssg76
g481
sg69
(lp488
g297
asbag62
(g83
g64
NtRp489
(dp490
g67
(dp491
g94
g95
ssg76
g481
sg69
(lp492
S':'
asbag62
(g83
g64
NtRp493
(dp494
g67
(dp495
sg76
g481
sg69
(lp496
g62
(g63
g64
NtRp497
(dp498
g67
(dp499
g75
I3
ssg76
g493
sg69
(lp500
S''
asbasbasbag62
(g78
g64
NtRp501
(dp502
g67
(dp503
sg76
g457
sg69
(lp504
g62
(g83
g64
NtRp505
(dp506
g67
(dp507
g87
g88
ssg76
g501
sg69
(lp508
g318
asbag62
(g83
g64
NtRp509
(dp510
g67
(dp511
g94
g95
ssg76
g501
sg69
(lp512
S':'
asbag62
(g83
g64
NtRp513
(dp514
g67
(dp515
sg76
g501
sg69
(lp516
g62
(g63
g64
NtRp517
(dp518
g67
(dp519
g75
I3
ssg76
g513
sg69
(lp520
S''
asbasbasbag62
(g78
g64
NtRp521
(dp522
g67
(dp523
sg76
g457
sg69
(lp524
g62
(g83
g64
NtRp525
(dp526
g67
(dp527
g87
g88
ssg76
g521
sg69
(lp528
g339
asbag62
(g83
g64
NtRp529
(dp530
g67
(dp531
g94
g95
ssg76
g521
sg69
(lp532
S':'
asbag62
(g83
g64
NtRp533
(dp534
g67
(dp535
sg76
g521
sg69
(lp536
g62
(g63
g64
NtRp537
(dp538
g67
(dp539
g75
I3
ssg76
g533
sg69
(lp540
S''
asbasbasbag62
(g78
g64
NtRp541
(dp542
g67
(dp543
sg76
g457
sg69
(lp544
g62
(g83
g64
NtRp545
(dp546
g67
(dp547
g87
g88
ssg76
g541
sg69
(lp548
g360
asbag62
(g83
g64
NtRp549
(dp550
g67
(dp551
g94
g95
ssg76
g541
sg69
(lp552
S':'
asbag62
(g83
g64
NtRp553
(dp554
g67
(dp555
sg76
g541
sg69
(lp556
g62
(g63
g64
NtRp557
(dp558
g67
(dp559
g75
I3
ssg76
g553
sg69
(lp560
S''
asbasbasbag62
(g78
g64
NtRp561
(dp562
g67
(dp563
sg76
g457
sg69
(lp564
g62
(g83
g64
NtRp565
(dp566
g67
(dp567
g87
g88
ssg76
g561
sg69
(lp568
g381
asbag62
(g83
g64
NtRp569
(dp570
g67
(dp571
g94
g95
ssg76
g561
sg69
(lp572
S':'
asbag62
(g83
g64
NtRp573
(dp574
g67
(dp575
sg76
g561
sg69
(lp576
g62
(g63
g64
NtRp577
(dp578
g67
(dp579
g75
I3
ssg76
g573
sg69
(lp580
S''
asbasbasbag62
(g78
g64
NtRp581
(dp582
g67
(dp583
sg76
g457
sg69
(lp584
g62
(g83
g64
NtRp585
(dp586
g67
(dp587
g87
g88
ssg76
g581
sg69
(lp588
g402
asbag62
(g83
g64
NtRp589
(dp590
g67
(dp591
g94
g95
ssg76
g581
sg69
(lp592
S':'
asbag62
(g83
g64
NtRp593
(dp594
g67
(dp595
sg76
g581
sg69
(lp596
g62
(g63
g64
NtRp597
(dp598
g67
(dp599
g75
I3
ssg76
g593
sg69
(lp600
S''
asbasbasbag62
(g78
g64
NtRp601
(dp602
g67
(dp603
sg76
g457
sg69
(lp604
g62
(g83
g64
NtRp605
(dp606
g67
(dp607
g87
g88
ssg76
g601
sg69
(lp608
g423
asbag62
(g83
g64
NtRp609
(dp610
g67
(dp611
g94
g95
ssg76
g601
sg69
(lp612
S':'
asbag62
(g83
g64
NtRp613
(dp614
g67
(dp615
sg76
g601
sg69
(lp616
g62
(g63
g64
NtRp617
(dp618
g67
(dp619
g75
I3
ssg76
g613
sg69
(lp620
S''
asbasbasbasbasbasbasbag62
(g78
g64
NtRp621
(dp622
g67
(dp623
sg76
g239
sg69
(lp624
g62
(g83
g64
NtRp625
(dp626
g67
(dp627
g87
g88
ssg76
g621
sg69
(lp628
S'session_id_welcome'
p629
asbag62
(g83
g64
NtRp630
(dp631
g67
(dp632
g94
g95
ssg76
g621
sg69
(lp633
S':'
asbag62
(g83
g64
NtRp634
(dp635
g67
(dp636
sg76
g621
sg69
(lp637
g62
(g63
g64
NtRp638
(dp639
g67
(dp640
g75
I4
ssg76
g634
sg69
(lp641
g62
(g71
g64
NtRp642
(dp643
g67
(dp644
g75
I3
ssg76
Nsg69
(lp645
g62
(g78
g64
NtRp646
(dp647
g67
(dp648
sg76
g642
sg69
(lp649
g62
(g83
g64
NtRp650
(dp651
g67
(dp652
g87
g88
ssg76
g646
sg69
(lp653
g276
asbag62
(g83
g64
NtRp654
(dp655
g67
(dp656
g94
g95
ssg76
g646
sg69
(lp657
S':'
asbag62
(g83
g64
NtRp658
(dp659
g67
(dp660
sg76
g646
sg69
(lp661
g62
(g63
g64
NtRp662
(dp663
g67
(dp664
g75
I3
ssg76
g658
sg69
(lp665
S''
asbasbasbag62
(g78
g64
NtRp666
(dp667
g67
(dp668
sg76
g642
sg69
(lp669
g62
(g83
g64
NtRp670
(dp671
g67
(dp672
g87
g88
ssg76
g666
sg69
(lp673
g297
asbag62
(g83
g64
NtRp674
(dp675
g67
(dp676
g94
g95
ssg76
g666
sg69
(lp677
S':'
asbag62
(g83
g64
NtRp678
(dp679
g67
(dp680
sg76
g666
sg69
(lp681
g62
(g63
g64
NtRp682
(dp683
g67
(dp684
g75
I3
ssg76
g678
sg69
(lp685
S''
asbasbasbag62
(g78
g64
NtRp686
(dp687
g67
(dp688
sg76
g642
sg69
(lp689
g62
(g83
g64
NtRp690
(dp691
g67
(dp692
g87
g88
ssg76
g686
sg69
(lp693
g318
asbag62
(g83
g64
NtRp694
(dp695
g67
(dp696
g94
g95
ssg76
g686
sg69
(lp697
S':'
asbag62
(g83
g64
NtRp698
(dp699
g67
(dp700
sg76
g686
sg69
(lp701
g62
(g63
g64
NtRp702
(dp703
g67
(dp704
g75
I3
ssg76
g698
sg69
(lp705
S''
asbasbasbag62
(g78
g64
NtRp706
(dp707
g67
(dp708
sg76
g642
sg69
(lp709
g62
(g83
g64
NtRp710
(dp711
g67
(dp712
g87
g88
ssg76
g706
sg69
(lp713
g339
asbag62
(g83
g64
NtRp714
(dp715
g67
(dp716
g94
g95
ssg76
g706
sg69
(lp717
S':'
asbag62
(g83
g64
NtRp718
(dp719
g67
(dp720
sg76
g706
sg69
(lp721
g62
(g63
g64
NtRp722
(dp723
g67
(dp724
g75
I3
ssg76
g718
sg69
(lp725
S''
asbasbasbag62
(g78
g64
NtRp726
(dp727
g67
(dp728
sg76
g642
sg69
(lp729
g62
(g83
g64
NtRp730
(dp731
g67
(dp732
g87
g88
ssg76
g726
sg69
(lp733
g360
asbag62
(g83
g64
NtRp734
(dp735
g67
(dp736
g94
g95
ssg76
g726
sg69
(lp737
S':'
asbag62
(g83
g64
NtRp738
(dp739
g67
(dp740
sg76
g726
sg69
(lp741
g62
(g63
g64
NtRp742
(dp743
g67
(dp744
g75
I3
ssg76
g738
sg69
(lp745
S''
asbasbasbag62
(g78
g64
NtRp746
(dp747
g67
(dp748
sg76
g642
sg69
(lp749
g62
(g83
g64
NtRp750
(dp751
g67
(dp752
g87
g88
ssg76
g746
sg69
(lp753
g381
asbag62
(g83
g64
NtRp754
(dp755
g67
(dp756
g94
g95
ssg76
g746
sg69
(lp757
S':'
asbag62
(g83
g64
NtRp758
(dp759
g67
(dp760
sg76
g746
sg69
(lp761
g62
(g63
g64
NtRp762
(dp763
g67
(dp764
g75
I3
ssg76
g758
sg69
(lp765
S''
asbasbasbag62
(g78
g64
NtRp766
(dp767
g67
(dp768
sg76
g642
sg69
(lp769
g62
(g83
g64
NtRp770
(dp771
g67
(dp772
g87
g88
ssg76
g766
sg69
(lp773
g402
asbag62
(g83
g64
NtRp774
(dp775
g67
(dp776
g94
g95
ssg76
g766
sg69
(lp777
S':'
asbag62
(g83
g64
NtRp778
(dp779
g67
(dp780
sg76
g766
sg69
(lp781
g62
(g63
g64
NtRp782
(dp783
g67
(dp784
g75
I3
ssg76
g778
sg69
(lp785
S''
asbasbasbag62
(g78
g64
NtRp786
(dp787
g67
(dp788
sg76
g642
sg69
(lp789
g62
(g83
g64
NtRp790
(dp791
g67
(dp792
g87
g88
ssg76
g786
sg69
(lp793
g423
asbag62
(g83
g64
NtRp794
(dp795
g67
(dp796
g94
g95
ssg76
g786
sg69
(lp797
S':'
asbag62
(g83
g64
NtRp798
(dp799
g67
(dp800
sg76
g786
sg69
(lp801
g62
(g63
g64
NtRp802
(dp803
g67
(dp804
g75
I3
ssg76
g798
sg69
(lp805
S''
asbasbasbasbasbasbasbasbasbasbasbag62
(g78
g64
NtRp806
(dp807
g67
(dp808
sg76
g72
sg69
(lp809
g62
(g83
g64
NtRp810
(dp811
g67
(dp812
g87
g88
ssg76
g806
sg69
(lp813
S'env'
p814
asbag62
(g83
g64
NtRp815
(dp816
g67
(dp817
g94
g95
ssg76
g806
sg69
(lp818
S':'
asbag62
(g83
g64
NtRp819
(dp820
g67
(dp821
sg76
g806
sg69
(lp822
g62
(g63
g64
NtRp823
(dp824
g67
(dp825
g75
I5
ssg76
g819
sg69
(lp826
g62
(g71
g64
NtRp827
(dp828
g67
(dp829
g75
I4
ssg76
Nsg69
(lp830
g62
(g78
g64
NtRp831
(dp832
g67
(dp833
sg76
g827
sg69
(lp834
g62
(g83
g64
NtRp835
(dp836
g67
(dp837
g87
g88
ssg76
g831
sg69
(lp838
S'app_folders'
p839
asbag62
(g83
g64
NtRp840
(dp841
g67
(dp842
g94
g95
ssg76
g831
sg69
(lp843
S':'
asbag62
(g83
g64
NtRp844
(dp845
g67
(dp846
sg76
g831
sg69
(lp847
g62
(g63
g64
NtRp848
(dp849
g67
(dp850
g75
I4
ssg76
g844
sg69
(lp851
S"set(['/Users/robertdo/hiremeintech/applications/hiremeintech/', '/Users/robertdo/hiremeintech/applications/admin/', '/Users/robertdo/hiremeintech/applications/examples/', '/Users/robertdo/hiremeintech/applications/welcome/'])"
p852
asbasbasbag62
(g78
g64
NtRp853
(dp854
g67
(dp855
sg76
g827
sg69
(lp856
g62
(g83
g64
NtRp857
(dp858
g67
(dp859
g87
g88
ssg76
g853
sg69
(lp860
S'applications_parent'
p861
asbag62
(g83
g64
NtRp862
(dp863
g67
(dp864
g94
g95
ssg76
g853
sg69
(lp865
S':'
asbag62
(g83
g64
NtRp866
(dp867
g67
(dp868
sg76
g853
sg69
(lp869
g62
(g63
g64
NtRp870
(dp871
g67
(dp872
g75
I4
ssg76
g866
sg69
(lp873
S'/Users/robertdo/hiremeintech'
p874
asbasbasbag62
(g78
g64
NtRp875
(dp876
g67
(dp877
sg76
g827
sg69
(lp878
g62
(g83
g64
NtRp879
(dp880
g67
(dp881
g87
g88
ssg76
g875
sg69
(lp882
S'cmd_args'
p883
asbag62
(g83
g64
NtRp884
(dp885
g67
(dp886
g94
g95
ssg76
g875
sg69
(lp887
S':'
asbag62
(g83
g64
NtRp888
(dp889
g67
(dp890
sg76
g875
sg69
(lp891
g62
(g63
g64
NtRp892
(dp893
g67
(dp894
g75
I4
ssg76
g888
sg69
(lp895
g62
(g71
g64
NtRp896
(dp897
g67
(dp898
g75
I3
ssg76
Nsg69
(lp899
sbasbasbasbag62
(g78
g64
NtRp900
(dp901
g67
(dp902
sg76
g827
sg69
(lp903
g62
(g83
g64
NtRp904
(dp905
g67
(dp906
g87
g88
ssg76
g900
sg69
(lp907
S'cmd_options'
p908
asbag62
(g83
g64
NtRp909
(dp910
g67
(dp911
g94
g95
ssg76
g900
sg69
(lp912
S':'
asbag62
(g83
g64
NtRp913
(dp914
g67
(dp915
sg76
g900
sg69
(lp916
g62
(g63
g64
NtRp917
(dp918
g67
(dp919
g75
I4
ssg76
g913
sg69
(lp920
S"<Values at 0x109376248: {'verbose': False, 'ip': '127.0.0.1', 'shutdown_timeout': 5, 'taskbar': False, 'nocron': False, 'pid_filename': 'httpserver.pid', 'maxthreads': None, 'softcron': False, 'server_name': 'robertdo-macbookpro', 'bpython': False, 'nogui': False, 'port': 8000, 'extcron': False, 'debuglevel': 30, 'test': None, 'folder': '/Users/robertdo/hiremeintech', 'config': '', 'import_models': False, 'winservice': '', 'shell': None, 'run': '', 'log_filename': 'httpserver.log', 'args': [''], 'socket_timeout': 5, 'ssl_ca_certificate': None, 'scheduler': None, 'profiler_filename': None, 'ssl_private_key': '', 'password': '<ask>', 'request_queue_size': 5, 'ssl_certificate': '', 'cronjob': False, 'numthreads': None, 'quiet': False, 'interfaces': None, 'minthreads': None, 'timeout': 10, 'plain': False, 'nobanner': False}>"
p921
asbasbasbag62
(g78
g64
NtRp922
(dp923
g67
(dp924
sg76
g827
sg69
(lp925
g62
(g83
g64
NtRp926
(dp927
g67
(dp928
g87
g88
ssg76
g922
sg69
(lp929
S'db_sessions'
p930
asbag62
(g83
g64
NtRp931
(dp932
g67
(dp933
g94
g95
ssg76
g922
sg69
(lp934
S':'
asbag62
(g83
g64
NtRp935
(dp936
g67
(dp937
sg76
g922
sg69
(lp938
g62
(g63
g64
NtRp939
(dp940
g67
(dp941
g75
I4
ssg76
g935
sg69
(lp942
S'set([])'
p943
asbasbasbag62
(g78
g64
NtRp944
(dp945
g67
(dp946
sg76
g827
sg69
(lp947
g62
(g83
g64
NtRp948
(dp949
g67
(dp950
g87
g88
ssg76
g944
sg69
(lp951
S'debugging'
p952
asbag62
(g83
g64
NtRp953
(dp954
g67
(dp955
g94
g95
ssg76
g944
sg69
(lp956
S':'
asbag62
(g83
g64
NtRp957
(dp958
g67
(dp959
sg76
g944
sg69
(lp960
g62
(g63
g64
NtRp961
(dp962
g67
(dp963
g75
I4
ssg76
g957
sg69
(lp964
g105
asbasbasbag62
(g78
g64
NtRp965
(dp966
g67
(dp967
sg76
g827
sg69
(lp968
g62
(g83
g64
NtRp969
(dp970
g67
(dp971
g87
g88
ssg76
g965
sg69
(lp972
S'gluon_parent'
p973
asbag62
(g83
g64
NtRp974
(dp975
g67
(dp976
g94
g95
ssg76
g965
sg69
(lp977
S':'
asbag62
(g83
g64
NtRp978
(dp979
g67
(dp980
sg76
g965
sg69
(lp981
g62
(g63
g64
NtRp982
(dp983
g67
(dp984
g75
I4
ssg76
g978
sg69
(lp985
S'/Users/robertdo/hiremeintech'
p986
asbasbasbag62
(g78
g64
NtRp987
(dp988
g67
(dp989
sg76
g827
sg69
(lp990
g62
(g83
g64
NtRp991
(dp992
g67
(dp993
g87
g88
ssg76
g987
sg69
(lp994
S'http_accept'
p995
asbag62
(g83
g64
NtRp996
(dp997
g67
(dp998
g94
g95
ssg76
g987
sg69
(lp999
S':'
asbag62
(g83
g64
NtRp1000
(dp1001
g67
(dp1002
sg76
g987
sg69
(lp1003
g62
(g63
g64
NtRp1004
(dp1005
g67
(dp1006
g75
I4
ssg76
g1000
sg69
(lp1007
S'text/html,application/xhtml+xml,application/xml;q=0.9,*/*;q=0.8'
p1008
asbasbasbag62
(g78
g64
NtRp1009
(dp1010
g67
(dp1011
sg76
g827
sg69
(lp1012
g62
(g83
g64
NtRp1013
(dp1014
g67
(dp1015
g87
g88
ssg76
g1009
sg69
(lp1016
S'http_accept_charset'
p1017
asbag62
(g83
g64
NtRp1018
(dp1019
g67
(dp1020
g94
g95
ssg76
g1009
sg69
(lp1021
S':'
asbag62
(g83
g64
NtRp1022
(dp1023
g67
(dp1024
sg76
g1009
sg69
(lp1025
g62
(g63
g64
NtRp1026
(dp1027
g67
(dp1028
g75
I4
ssg76
g1022
sg69
(lp1029
S'ISO-8859-1,utf-8;q=0.7,*;q=0.3'
p1030
asbasbasbag62
(g78
g64
NtRp1031
(dp1032
g67
(dp1033
sg76
g827
sg69
(lp1034
g62
(g83
g64
NtRp1035
(dp1036
g67
(dp1037
g87
g88
ssg76
g1031
sg69
(lp1038
S'http_accept_encoding'
p1039
asbag62
(g83
g64
NtRp1040
(dp1041
g67
(dp1042
g94
g95
ssg76
g1031
sg69
(lp1043
S':'
asbag62
(g83
g64
NtRp1044
(dp1045
g67
(dp1046
sg76
g1031
sg69
(lp1047
g62
(g63
g64
NtRp1048
(dp1049
g67
(dp1050
g75
I4
ssg76
g1044
sg69
(lp1051
S'gzip,deflate,sdch'
p1052
asbasbasbag62
(g78
g64
NtRp1053
(dp1054
g67
(dp1055
sg76
g827
sg69
(lp1056
g62
(g83
g64
NtRp1057
(dp1058
g67
(dp1059
g87
g88
ssg76
g1053
sg69
(lp1060
S'http_accept_language'
p1061
asbag62
(g83
g64
NtRp1062
(dp1063
g67
(dp1064
g94
g95
ssg76
g1053
sg69
(lp1065
S':'
asbag62
(g83
g64
NtRp1066
(dp1067
g67
(dp1068
sg76
g1053
sg69
(lp1069
g62
(g63
g64
NtRp1070
(dp1071
g67
(dp1072
g75
I4
ssg76
g1066
sg69
(lp1073
S'en-US,en;q=0.8'
p1074
asbasbasbag62
(g78
g64
NtRp1075
(dp1076
g67
(dp1077
sg76
g827
sg69
(lp1078
g62
(g83
g64
NtRp1079
(dp1080
g67
(dp1081
g87
g88
ssg76
g1075
sg69
(lp1082
S'http_cache_control'
p1083
asbag62
(g83
g64
NtRp1084
(dp1085
g67
(dp1086
g94
g95
ssg76
g1075
sg69
(lp1087
S':'
asbag62
(g83
g64
NtRp1088
(dp1089
g67
(dp1090
sg76
g1075
sg69
(lp1091
g62
(g63
g64
NtRp1092
(dp1093
g67
(dp1094
g75
I4
ssg76
g1088
sg69
(lp1095
S'max-age=0'
p1096
asbasbasbag62
(g78
g64
NtRp1097
(dp1098
g67
(dp1099
sg76
g827
sg69
(lp1100
g62
(g83
g64
NtRp1101
(dp1102
g67
(dp1103
g87
g88
ssg76
g1097
sg69
(lp1104
S'http_connection'
p1105
asbag62
(g83
g64
NtRp1106
(dp1107
g67
(dp1108
g94
g95
ssg76
g1097
sg69
(lp1109
S':'
asbag62
(g83
g64
NtRp1110
(dp1111
g67
(dp1112
sg76
g1097
sg69
(lp1113
g62
(g63
g64
NtRp1114
(dp1115
g67
(dp1116
g75
I4
ssg76
g1110
sg69
(lp1117
S'keep-alive'
p1118
asbasbasbag62
(g78
g64
NtRp1119
(dp1120
g67
(dp1121
sg76
g827
sg69
(lp1122
g62
(g83
g64
NtRp1123
(dp1124
g67
(dp1125
g87
g88
ssg76
g1119
sg69
(lp1126
S'http_cookie'
p1127
asbag62
(g83
g64
NtRp1128
(dp1129
g67
(dp1130
g94
g95
ssg76
g1119
sg69
(lp1131
S':'
asbag62
(g83
g64
NtRp1132
(dp1133
g67
(dp1134
sg76
g1119
sg69
(lp1135
g62
(g63
g64
NtRp1136
(dp1137
g67
(dp1138
g75
I4
ssg76
g1132
sg69
(lp1139
S'session_id_welcome=127.0.0.1-4e50e581-e4be-43e0-8440-57df6b8bf983; session_id_admin=127.0.0.1-f4a04050-72ac-47a4-836d-728827b05f6b; session_id_hiremeintech=127.0.0.1-3b8691fb-34ea-4163-ba1b-d727e11330f7'
p1140
asbasbasbag62
(g78
g64
NtRp1141
(dp1142
g67
(dp1143
sg76
g827
sg69
(lp1144
g62
(g83
g64
NtRp1145
(dp1146
g67
(dp1147
g87
g88
ssg76
g1141
sg69
(lp1148
S'http_host'
p1149
asbag62
(g83
g64
NtRp1150
(dp1151
g67
(dp1152
g94
g95
ssg76
g1141
sg69
(lp1153
S':'
asbag62
(g83
g64
NtRp1154
(dp1155
g67
(dp1156
sg76
g1141
sg69
(lp1157
g62
(g63
g64
NtRp1158
(dp1159
g67
(dp1160
g75
I4
ssg76
g1154
sg69
(lp1161
S'localhost:8000'
p1162
asbasbasbag62
(g78
g64
NtRp1163
(dp1164
g67
(dp1165
sg76
g827
sg69
(lp1166
g62
(g83
g64
NtRp1167
(dp1168
g67
(dp1169
g87
g88
ssg76
g1163
sg69
(lp1170
S'http_user_agent'
p1171
asbag62
(g83
g64
NtRp1172
(dp1173
g67
(dp1174
g94
g95
ssg76
g1163
sg69
(lp1175
S':'
asbag62
(g83
g64
NtRp1176
(dp1177
g67
(dp1178
sg76
g1163
sg69
(lp1179
g62
(g63
g64
NtRp1180
(dp1181
g67
(dp1182
g75
I4
ssg76
g1176
sg69
(lp1183
S'Mozilla/5.0 (Macintosh; Intel Mac OS X 10_7_3) AppleWebKit/535.11 (KHTML, like Gecko) Chrome/17.0.963.79 Safari/535.11'
p1184
asbasbasbag62
(g78
g64
NtRp1185
(dp1186
g67
(dp1187
sg76
g827
sg69
(lp1188
g62
(g83
g64
NtRp1189
(dp1190
g67
(dp1191
g87
g88
ssg76
g1185
sg69
(lp1192
S'is_jython'
p1193
asbag62
(g83
g64
NtRp1194
(dp1195
g67
(dp1196
g94
g95
ssg76
g1185
sg69
(lp1197
S':'
asbag62
(g83
g64
NtRp1198
(dp1199
g67
(dp1200
sg76
g1185
sg69
(lp1201
g62
(g63
g64
NtRp1202
(dp1203
g67
(dp1204
g75
I4
ssg76
g1198
sg69
(lp1205
g105
asbasbasbag62
(g78
g64
NtRp1206
(dp1207
g67
(dp1208
sg76
g827
sg69
(lp1209
g62
(g83
g64
NtRp1210
(dp1211
g67
(dp1212
g87
g88
ssg76
g1206
sg69
(lp1213
S'is_pypy'
p1214
asbag62
(g83
g64
NtRp1215
(dp1216
g67
(dp1217
g94
g95
ssg76
g1206
sg69
(lp1218
S':'
asbag62
(g83
g64
NtRp1219
(dp1220
g67
(dp1221
sg76
g1206
sg69
(lp1222
g62
(g63
g64
NtRp1223
(dp1224
g67
(dp1225
g75
I4
ssg76
g1219
sg69
(lp1226
g105
asbasbasbag62
(g78
g64
NtRp1227
(dp1228
g67
(dp1229
sg76
g827
sg69
(lp1230
g62
(g83
g64
NtRp1231
(dp1232
g67
(dp1233
g87
g88
ssg76
g1227
sg69
(lp1234
S'path_info'
p1235
asbag62
(g83
g64
NtRp1236
(dp1237
g67
(dp1238
g94
g95
ssg76
g1227
sg69
(lp1239
S':'
asbag62
(g83
g64
NtRp1240
(dp1241
g67
(dp1242
sg76
g1227
sg69
(lp1243
g62
(g63
g64
NtRp1244
(dp1245
g67
(dp1246
g75
I4
ssg76
g1240
sg69
(lp1247
S'/hiremeintech'
p1248
asbasbasbag62
(g78
g64
NtRp1249
(dp1250
g67
(dp1251
sg76
g827
sg69
(lp1252
g62
(g83
g64
NtRp1253
(dp1254
g67
(dp1255
g87
g88
ssg76
g1249
sg69
(lp1256
S'query_string'
p1257
asbag62
(g83
g64
NtRp1258
(dp1259
g67
(dp1260
g94
g95
ssg76
g1249
sg69
(lp1261
S':'
asbag62
(g83
g64
NtRp1262
(dp1263
g67
(dp1264
sg76
g1249
sg69
(lp1265
g62
(g63
g64
NtRp1266
(dp1267
g67
(dp1268
g75
I4
ssg76
g1262
sg69
(lp1269
S''
asbasbasbag62
(g78
g64
NtRp1270
(dp1271
g67
(dp1272
sg76
g827
sg69
(lp1273
g62
(g83
g64
NtRp1274
(dp1275
g67
(dp1276
g87
g88
ssg76
g1270
sg69
(lp1277
S'remote_addr'
p1278
asbag62
(g83
g64
NtRp1279
(dp1280
g67
(dp1281
g94
g95
ssg76
g1270
sg69
(lp1282
S':'
asbag62
(g83
g64
NtRp1283
(dp1284
g67
(dp1285
sg76
g1270
sg69
(lp1286
g62
(g63
g64
NtRp1287
(dp1288
g67
(dp1289
g75
I4
ssg76
g1283
sg69
(lp1290
g195
asbasbasbag62
(g78
g64
NtRp1291
(dp1292
g67
(dp1293
sg76
g827
sg69
(lp1294
g62
(g83
g64
NtRp1295
(dp1296
g67
(dp1297
g87
g88
ssg76
g1291
sg69
(lp1298
S'remote_port'
p1299
asbag62
(g83
g64
NtRp1300
(dp1301
g67
(dp1302
g94
g95
ssg76
g1291
sg69
(lp1303
S':'
asbag62
(g83
g64
NtRp1304
(dp1305
g67
(dp1306
sg76
g1291
sg69
(lp1307
g62
(g63
g64
NtRp1308
(dp1309
g67
(dp1310
g75
I4
ssg76
g1304
sg69
(lp1311
S'55420'
p1312
asbasbasbag62
(g78
g64
NtRp1313
(dp1314
g67
(dp1315
sg76
g827
sg69
(lp1316
g62
(g83
g64
NtRp1317
(dp1318
g67
(dp1319
g87
g88
ssg76
g1313
sg69
(lp1320
S'request_method'
p1321
asbag62
(g83
g64
NtRp1322
(dp1323
g67
(dp1324
g94
g95
ssg76
g1313
sg69
(lp1325
S':'
asbag62
(g83
g64
NtRp1326
(dp1327
g67
(dp1328
sg76
g1313
sg69
(lp1329
g62
(g63
g64
NtRp1330
(dp1331
g67
(dp1332
g75
I4
ssg76
g1326
sg69
(lp1333
S'GET'
p1334
asbasbasbag62
(g78
g64
NtRp1335
(dp1336
g67
(dp1337
sg76
g827
sg69
(lp1338
g62
(g83
g64
NtRp1339
(dp1340
g67
(dp1341
g87
g88
ssg76
g1335
sg69
(lp1342
S'script_name'
p1343
asbag62
(g83
g64
NtRp1344
(dp1345
g67
(dp1346
g94
g95
ssg76
g1335
sg69
(lp1347
S':'
asbag62
(g83
g64
NtRp1348
(dp1349
g67
(dp1350
sg76
g1335
sg69
(lp1351
g62
(g63
g64
NtRp1352
(dp1353
g67
(dp1354
g75
I4
ssg76
g1348
sg69
(lp1355
S''
asbasbasbag62
(g78
g64
NtRp1356
(dp1357
g67
(dp1358
sg76
g827
sg69
(lp1359
g62
(g83
g64
NtRp1360
(dp1361
g67
(dp1362
g87
g88
ssg76
g1356
sg69
(lp1363
S'server_name'
p1364
asbag62
(g83
g64
NtRp1365
(dp1366
g67
(dp1367
g94
g95
ssg76
g1356
sg69
(lp1368
S':'
asbag62
(g83
g64
NtRp1369
(dp1370
g67
(dp1371
sg76
g1356
sg69
(lp1372
g62
(g63
g64
NtRp1373
(dp1374
g67
(dp1375
g75
I4
ssg76
g1369
sg69
(lp1376
S'robertdo-macbookpro'
p1377
asbasbasbag62
(g78
g64
NtRp1378
(dp1379
g67
(dp1380
sg76
g827
sg69
(lp1381
g62
(g83
g64
NtRp1382
(dp1383
g67
(dp1384
g87
g88
ssg76
g1378
sg69
(lp1385
S'server_port'
p1386
asbag62
(g83
g64
NtRp1387
(dp1388
g67
(dp1389
g94
g95
ssg76
g1378
sg69
(lp1390
S':'
asbag62
(g83
g64
NtRp1391
(dp1392
g67
(dp1393
sg76
g1378
sg69
(lp1394
g62
(g63
g64
NtRp1395
(dp1396
g67
(dp1397
g75
I4
ssg76
g1391
sg69
(lp1398
S'8000'
p1399
asbasbasbag62
(g78
g64
NtRp1400
(dp1401
g67
(dp1402
sg76
g827
sg69
(lp1403
g62
(g83
g64
NtRp1404
(dp1405
g67
(dp1406
g87
g88
ssg76
g1400
sg69
(lp1407
S'server_protocol'
p1408
asbag62
(g83
g64
NtRp1409
(dp1410
g67
(dp1411
g94
g95
ssg76
g1400
sg69
(lp1412
S':'
asbag62
(g83
g64
NtRp1413
(dp1414
g67
(dp1415
sg76
g1400
sg69
(lp1416
g62
(g63
g64
NtRp1417
(dp1418
g67
(dp1419
g75
I4
ssg76
g1413
sg69
(lp1420
S'HTTP/1.1'
p1421
asbasbasbag62
(g78
g64
NtRp1422
(dp1423
g67
(dp1424
sg76
g827
sg69
(lp1425
g62
(g83
g64
NtRp1426
(dp1427
g67
(dp1428
g87
g88
ssg76
g1422
sg69
(lp1429
S'server_software'
p1430
asbag62
(g83
g64
NtRp1431
(dp1432
g67
(dp1433
g94
g95
ssg76
g1422
sg69
(lp1434
S':'
asbag62
(g83
g64
NtRp1435
(dp1436
g67
(dp1437
sg76
g1422
sg69
(lp1438
g62
(g63
g64
NtRp1439
(dp1440
g67
(dp1441
g75
I4
ssg76
g1435
sg69
(lp1442
S'Rocket 1.2.4'
p1443
asbasbasbag62
(g78
g64
NtRp1444
(dp1445
g67
(dp1446
sg76
g827
sg69
(lp1447
g62
(g83
g64
NtRp1448
(dp1449
g67
(dp1450
g87
g88
ssg76
g1444
sg69
(lp1451
S'web2py_crontype'
p1452
asbag62
(g83
g64
NtRp1453
(dp1454
g67
(dp1455
g94
g95
ssg76
g1444
sg69
(lp1456
S':'
asbag62
(g83
g64
NtRp1457
(dp1458
g67
(dp1459
sg76
g1444
sg69
(lp1460
g62
(g63
g64
NtRp1461
(dp1462
g67
(dp1463
g75
I4
ssg76
g1457
sg69
(lp1464
S'hard'
p1465
asbasbasbag62
(g78
g64
NtRp1466
(dp1467
g67
(dp1468
sg76
g827
sg69
(lp1469
g62
(g83
g64
NtRp1470
(dp1471
g67
(dp1472
g87
g88
ssg76
g1466
sg69
(lp1473
S'web2py_path'
p1474
asbag62
(g83
g64
NtRp1475
(dp1476
g67
(dp1477
g94
g95
ssg76
g1466
sg69
(lp1478
S':'
asbag62
(g83
g64
NtRp1479
(dp1480
g67
(dp1481
sg76
g1466
sg69
(lp1482
g62
(g63
g64
NtRp1483
(dp1484
g67
(dp1485
g75
I4
ssg76
g1479
sg69
(lp1486
g874
asbasbasbag62
(g78
g64
NtRp1487
(dp1488
g67
(dp1489
sg76
g827
sg69
(lp1490
g62
(g83
g64
NtRp1491
(dp1492
g67
(dp1493
g87
g88
ssg76
g1487
sg69
(lp1494
S'web2py_version'
p1495
asbag62
(g83
g64
NtRp1496
(dp1497
g67
(dp1498
g94
g95
ssg76
g1487
sg69
(lp1499
S':'
asbag62
(g83
g64
NtRp1500
(dp1501
g67
(dp1502
sg76
g1487
sg69
(lp1503
g62
(g63
g64
NtRp1504
(dp1505
g67
(dp1506
g75
I4
ssg76
g1500
sg69
(lp1507
g62
(g71
g64
NtRp1508
(dp1509
g67
(dp1510
g75
I3
ssg76
Nsg69
(lp1511
g62
(g78
g64
NtRp1512
(dp1513
g67
(dp1514
sg76
g1508
sg69
(lp1515
g62
(g83
g64
NtRp1516
(dp1517
g67
(dp1518
sg76
g1512
sg69
(lp1519
g62
(g63
g64
NtRp1520
(dp1521
g67
(dp1522
g75
I3
ssg76
g1516
sg69
(lp1523
S'1'
asbasbasbag62
(g78
g64
NtRp1524
(dp1525
g67
(dp1526
sg76
g1508
sg69
(lp1527
g62
(g83
g64
NtRp1528
(dp1529
g67
(dp1530
sg76
g1524
sg69
(lp1531
g62
(g63
g64
NtRp1532
(dp1533
g67
(dp1534
g75
I3
ssg76
g1528
sg69
(lp1535
S'99'
p1536
asbasbasbag62
(g78
g64
NtRp1537
(dp1538
g67
(dp1539
sg76
g1508
sg69
(lp1540
g62
(g83
g64
NtRp1541
(dp1542
g67
(dp1543
sg76
g1537
sg69
(lp1544
g62
(g63
g64
NtRp1545
(dp1546
g67
(dp1547
g75
I3
ssg76
g1541
sg69
(lp1548
S'7'
asbasbasbag62
(g78
g64
NtRp1549
(dp1550
g67
(dp1551
sg76
g1508
sg69
(lp1552
g62
(g83
g64
NtRp1553
(dp1554
g67
(dp1555
sg76
g1549
sg69
(lp1556
g62
(g63
g64
NtRp1557
(dp1558
g67
(dp1559
g75
I3
ssg76
g1553
sg69
(lp1560
S'datetime.datetime(2012, 3, 4, 22, 12, 8)'
p1561
asbasbasbag62
(g78
g64
NtRp1562
(dp1563
g67
(dp1564
sg76
g1508
sg69
(lp1565
g62
(g83
g64
NtRp1566
(dp1567
g67
(dp1568
sg76
g1562
sg69
(lp1569
g62
(g63
g64
NtRp1570
(dp1571
g67
(dp1572
g75
I3
ssg76
g1566
sg69
(lp1573
S'stable'
p1574
asbasbasbasbasbasbasbag62
(g78
g64
NtRp1575
(dp1576
g67
(dp1577
sg76
g827
sg69
(lp1578
g62
(g83
g64
NtRp1579
(dp1580
g67
(dp1581
g87
g88
ssg76
g1575
sg69
(lp1582
S'wsgi_errors'
p1583
asbag62
(g83
g64
NtRp1584
(dp1585
g67
(dp1586
g94
g95
ssg76
g1575
sg69
(lp1587
S':'
asbag62
(g83
g64
NtRp1588
(dp1589
g67
(dp1590
sg76
g1575
sg69
(lp1591
g62
(g63
g64
NtRp1592
(dp1593
g67
(dp1594
g75
I4
ssg76
g1588
sg69
(lp1595
S"<open file '<stderr>', mode 'w' at 0x108918270>"
p1596
asbasbasbag62
(g78
g64
NtRp1597
(dp1598
g67
(dp1599
sg76
g827
sg69
(lp1600
g62
(g83
g64
NtRp1601
(dp1602
g67
(dp1603
g87
g88
ssg76
g1597
sg69
(lp1604
S'wsgi_file_wrapper'
p1605
asbag62
(g83
g64
NtRp1606
(dp1607
g67
(dp1608
g94
g95
ssg76
g1597
sg69
(lp1609
S':'
asbag62
(g83
g64
NtRp1610
(dp1611
g67
(dp1612
sg76
g1597
sg69
(lp1613
g62
(g63
g64
NtRp1614
(dp1615
g67
(dp1616
g75
I4
ssg76
g1610
sg69
(lp1617
S'<class wsgiref.util.FileWrapper at 0x10928e258>'
p1618
asbasbasbag62
(g78
g64
NtRp1619
(dp1620
g67
(dp1621
sg76
g827
sg69
(lp1622
g62
(g83
g64
NtRp1623
(dp1624
g67
(dp1625
g87
g88
ssg76
g1619
sg69
(lp1626
S'wsgi_input'
p1627
asbag62
(g83
g64
NtRp1628
(dp1629
g67
(dp1630
g94
g95
ssg76
g1619
sg69
(lp1631
S':'
asbag62
(g83
g64
NtRp1632
(dp1633
g67
(dp1634
sg76
g1619
sg69
(lp1635
g62
(g63
g64
NtRp1636
(dp1637
g67
(dp1638
g75
I4
ssg76
g1632
sg69
(lp1639
S'<socket._fileobject object at 0x10de60650>'
p1640
asbasbasbag62
(g78
g64
NtRp1641
(dp1642
g67
(dp1643
sg76
g827
sg69
(lp1644
g62
(g83
g64
NtRp1645
(dp1646
g67
(dp1647
g87
g88
ssg76
g1641
sg69
(lp1648
S'wsgi_multiprocess'
p1649
asbag62
(g83
g64
NtRp1650
(dp1651
g67
(dp1652
g94
g95
ssg76
g1641
sg69
(lp1653
S':'
asbag62
(g83
g64
NtRp1654
(dp1655
g67
(dp1656
sg76
g1641
sg69
(lp1657
g62
(g63
g64
NtRp1658
(dp1659
g67
(dp1660
g75
I4
ssg76
g1654
sg69
(lp1661
g105
asbasbasbag62
(g78
g64
NtRp1662
(dp1663
g67
(dp1664
sg76
g827
sg69
(lp1665
g62
(g83
g64
NtRp1666
(dp1667
g67
(dp1668
g87
g88
ssg76
g1662
sg69
(lp1669
S'wsgi_multithread'
p1670
asbag62
(g83
g64
NtRp1671
(dp1672
g67
(dp1673
g94
g95
ssg76
g1662
sg69
(lp1674
S':'
asbag62
(g83
g64
NtRp1675
(dp1676
g67
(dp1677
sg76
g1662
sg69
(lp1678
g62
(g63
g64
NtRp1679
(dp1680
g67
(dp1681
g75
I4
ssg76
g1675
sg69
(lp1682
S'True'
p1683
asbasbasbag62
(g78
g64
NtRp1684
(dp1685
g67
(dp1686
sg76
g827
sg69
(lp1687
g62
(g83
g64
NtRp1688
(dp1689
g67
(dp1690
g87
g88
ssg76
g1684
sg69
(lp1691
S'wsgi_run_once'
p1692
asbag62
(g83
g64
NtRp1693
(dp1694
g67
(dp1695
g94
g95
ssg76
g1684
sg69
(lp1696
S':'
asbag62
(g83
g64
NtRp1697
(dp1698
g67
(dp1699
sg76
g1684
sg69
(lp1700
g62
(g63
g64
NtRp1701
(dp1702
g67
(dp1703
g75
I4
ssg76
g1697
sg69
(lp1704
g105
asbasbasbag62
(g78
g64
NtRp1705
(dp1706
g67
(dp1707
sg76
g827
sg69
(lp1708
g62
(g83
g64
NtRp1709
(dp1710
g67
(dp1711
g87
g88
ssg76
g1705
sg69
(lp1712
S'wsgi_url_scheme'
p1713
asbag62
(g83
g64
NtRp1714
(dp1715
g67
(dp1716
g94
g95
ssg76
g1705
sg69
(lp1717
S':'
asbag62
(g83
g64
NtRp1718
(dp1719
g67
(dp1720
sg76
g1705
sg69
(lp1721
g62
(g63
g64
NtRp1722
(dp1723
g67
(dp1724
g75
I4
ssg76
g1718
sg69
(lp1725
S'http'
p1726
asbasbasbag62
(g78
g64
NtRp1727
(dp1728
g67
(dp1729
sg76
g827
sg69
(lp1730
g62
(g83
g64
NtRp1731
(dp1732
g67
(dp1733
g87
g88
ssg76
g1727
sg69
(lp1734
S'wsgi_version'
p1735
asbag62
(g83
g64
NtRp1736
(dp1737
g67
(dp1738
g94
g95
ssg76
g1727
sg69
(lp1739
S':'
asbag62
(g83
g64
NtRp1740
(dp1741
g67
(dp1742
sg76
g1727
sg69
(lp1743
g62
(g63
g64
NtRp1744
(dp1745
g67
(dp1746
g75
I4
ssg76
g1740
sg69
(lp1747
g62
(g71
g64
NtRp1748
(dp1749
g67
(dp1750
g75
I3
ssg76
Nsg69
(lp1751
g62
(g78
g64
NtRp1752
(dp1753
g67
(dp1754
sg76
g1748
sg69
(lp1755
g62
(g83
g64
NtRp1756
(dp1757
g67
(dp1758
sg76
g1752
sg69
(lp1759
g62
(g63
g64
NtRp1760
(dp1761
g67
(dp1762
g75
I3
ssg76
g1756
sg69
(lp1763
S'1'
asbasbasbag62
(g78
g64
NtRp1764
(dp1765
g67
(dp1766
sg76
g1748
sg69
(lp1767
g62
(g83
g64
NtRp1768
(dp1769
g67
(dp1770
sg76
g1764
sg69
(lp1771
g62
(g63
g64
NtRp1772
(dp1773
g67
(dp1774
g75
I3
ssg76
g1768
sg69
(lp1775
S'0'
asbasbasbasbasbasbasbasbasbasbasbag62
(g78
g64
NtRp1776
(dp1777
g67
(dp1778
sg76
g72
sg69
(lp1779
g62
(g83
g64
NtRp1780
(dp1781
g67
(dp1782
g87
g88
ssg76
g1776
sg69
(lp1783
S'extension'
p1784
asbag62
(g83
g64
NtRp1785
(dp1786
g67
(dp1787
g94
g95
ssg76
g1776
sg69
(lp1788
S':'
asbag62
(g83
g64
NtRp1789
(dp1790
g67
(dp1791
sg76
g1776
sg69
(lp1792
g62
(g63
g64
NtRp1793
(dp1794
g67
(dp1795
g75
I5
ssg76
g1789
sg69
(lp1796
S'html'
p1797
asbasbasbag62
(g78
g64
NtRp1798
(dp1799
g67
(dp1800
sg76
g72
sg69
(lp1801
g62
(g83
g64
NtRp1802
(dp1803
g67
(dp1804
g87
g88
ssg76
g1798
sg69
(lp1805
S'folder'
p1806
asbag62
(g83
g64
NtRp1807
(dp1808
g67
(dp1809
g94
g95
ssg76
g1798
sg69
(lp1810
S':'
asbag62
(g83
g64
NtRp1811
(dp1812
g67
(dp1813
sg76
g1798
sg69
(lp1814
g62
(g63
g64
NtRp1815
(dp1816
g67
(dp1817
g75
I5
ssg76
g1811
sg69
(lp1818
S'/Users/robertdo/hiremeintech/applications/hiremeintech/'
p1819
asbasbasbag62
(g78
g64
NtRp1820
(dp1821
g67
(dp1822
sg76
g72
sg69
(lp1823
g62
(g83
g64
NtRp1824
(dp1825
g67
(dp1826
g87
g88
ssg76
g1820
sg69
(lp1827
S'function'
p1828
asbag62
(g83
g64
NtRp1829
(dp1830
g67
(dp1831
g94
g95
ssg76
g1820
sg69
(lp1832
S':'
asbag62
(g83
g64
NtRp1833
(dp1834
g67
(dp1835
sg76
g1820
sg69
(lp1836
g62
(g63
g64
NtRp1837
(dp1838
g67
(dp1839
g75
I5
ssg76
g1833
sg69
(lp1840
S'index'
p1841
asbasbasbag62
(g78
g64
NtRp1842
(dp1843
g67
(dp1844
sg76
g72
sg69
(lp1845
g62
(g83
g64
NtRp1846
(dp1847
g67
(dp1848
g87
g88
ssg76
g1842
sg69
(lp1849
S'get_vars'
p1850
asbag62
(g83
g64
NtRp1851
(dp1852
g67
(dp1853
g94
g95
ssg76
g1842
sg69
(lp1854
S':'
asbag62
(g83
g64
NtRp1855
(dp1856
g67
(dp1857
sg76
g1842
sg69
(lp1858
g62
(g63
g64
NtRp1859
(dp1860
g67
(dp1861
g75
I5
ssg76
g1855
sg69
(lp1862
g62
(g71
g64
NtRp1863
(dp1864
g67
(dp1865
g75
I4
ssg76
Nsg69
(lp1866
sbasbasbasbag62
(g78
g64
NtRp1867
(dp1868
g67
(dp1869
sg76
g72
sg69
(lp1870
g62
(g83
g64
NtRp1871
(dp1872
g67
(dp1873
g87
g88
ssg76
g1867
sg69
(lp1874
S'global_settings'
p1875
asbag62
(g83
g64
NtRp1876
(dp1877
g67
(dp1878
g94
g95
ssg76
g1867
sg69
(lp1879
S':'
asbag62
(g83
g64
NtRp1880
(dp1881
g67
(dp1882
sg76
g1867
sg69
(lp1883
g62
(g63
g64
NtRp1884
(dp1885
g67
(dp1886
g75
I5
ssg76
g1880
sg69
(lp1887
g62
(g71
g64
NtRp1888
(dp1889
g67
(dp1890
g75
I4
ssg76
Nsg69
(lp1891
g62
(g78
g64
NtRp1892
(dp1893
g67
(dp1894
sg76
g1888
sg69
(lp1895
g62
(g83
g64
NtRp1896
(dp1897
g67
(dp1898
g87
g88
ssg76
g1892
sg69
(lp1899
g839
asbag62
(g83
g64
NtRp1900
(dp1901
g67
(dp1902
g94
g95
ssg76
g1892
sg69
(lp1903
S':'
asbag62
(g83
g64
NtRp1904
(dp1905
g67
(dp1906
sg76
g1892
sg69
(lp1907
g62
(g63
g64
NtRp1908
(dp1909
g67
(dp1910
g75
I4
ssg76
g1904
sg69
(lp1911
S"set(['/Users/robertdo/hiremeintech/applications/hiremeintech/', '/Users/robertdo/hiremeintech/applications/admin/', '/Users/robertdo/hiremeintech/applications/examples/', '/Users/robertdo/hiremeintech/applications/welcome/'])"
p1912
asbasbasbag62
(g78
g64
NtRp1913
(dp1914
g67
(dp1915
sg76
g1888
sg69
(lp1916
g62
(g83
g64
NtRp1917
(dp1918
g67
(dp1919
g87
g88
ssg76
g1913
sg69
(lp1920
g861
asbag62
(g83
g64
NtRp1921
(dp1922
g67
(dp1923
g94
g95
ssg76
g1913
sg69
(lp1924
S':'
asbag62
(g83
g64
NtRp1925
(dp1926
g67
(dp1927
sg76
g1913
sg69
(lp1928
g62
(g63
g64
NtRp1929
(dp1930
g67
(dp1931
g75
I4
ssg76
g1925
sg69
(lp1932
g874
asbasbasbag62
(g78
g64
NtRp1933
(dp1934
g67
(dp1935
sg76
g1888
sg69
(lp1936
g62
(g83
g64
NtRp1937
(dp1938
g67
(dp1939
g87
g88
ssg76
g1933
sg69
(lp1940
g883
asbag62
(g83
g64
NtRp1941
(dp1942
g67
(dp1943
g94
g95
ssg76
g1933
sg69
(lp1944
S':'
asbag62
(g83
g64
NtRp1945
(dp1946
g67
(dp1947
sg76
g1933
sg69
(lp1948
g62
(g63
g64
NtRp1949
(dp1950
g67
(dp1951
g75
I4
ssg76
g1945
sg69
(lp1952
g62
(g71
g64
NtRp1953
(dp1954
g67
(dp1955
g75
I3
ssg76
Nsg69
(lp1956
sbasbasbasbag62
(g78
g64
NtRp1957
(dp1958
g67
(dp1959
sg76
g1888
sg69
(lp1960
g62
(g83
g64
NtRp1961
(dp1962
g67
(dp1963
g87
g88
ssg76
g1957
sg69
(lp1964
g908
asbag62
(g83
g64
NtRp1965
(dp1966
g67
(dp1967
g94
g95
ssg76
g1957
sg69
(lp1968
S':'
asbag62
(g83
g64
NtRp1969
(dp1970
g67
(dp1971
sg76
g1957
sg69
(lp1972
g62
(g63
g64
NtRp1973
(dp1974
g67
(dp1975
g75
I4
ssg76
g1969
sg69
(lp1976
S"<Values at 0x109376248: {'verbose': False, 'ip': '127.0.0.1', 'shutdown_timeout': 5, 'taskbar': False, 'nocron': False, 'pid_filename': 'httpserver.pid', 'maxthreads': None, 'softcron': False, 'server_name': 'robertdo-macbookpro', 'bpython': False, 'nogui': False, 'port': 8000, 'extcron': False, 'debuglevel': 30, 'test': None, 'folder': '/Users/robertdo/hiremeintech', 'config': '', 'import_models': False, 'winservice': '', 'shell': None, 'run': '', 'log_filename': 'httpserver.log', 'args': [''], 'socket_timeout': 5, 'ssl_ca_certificate': None, 'scheduler': None, 'profiler_filename': None, 'ssl_private_key': '', 'password': '<ask>', 'request_queue_size': 5, 'ssl_certificate': '', 'cronjob': False, 'numthreads': None, 'quiet': False, 'interfaces': None, 'minthreads': None, 'timeout': 10, 'plain': False, 'nobanner': False}>"
p1977
asbasbasbag62
(g78
g64
NtRp1978
(dp1979
g67
(dp1980
sg76
g1888
sg69
(lp1981
g62
(g83
g64
NtRp1982
(dp1983
g67
(dp1984
g87
g88
ssg76
g1978
sg69
(lp1985
g930
asbag62
(g83
g64
NtRp1986
(dp1987
g67
(dp1988
g94
g95
ssg76
g1978
sg69
(lp1989
S':'
asbag62
(g83
g64
NtRp1990
(dp1991
g67
(dp1992
sg76
g1978
sg69
(lp1993
g62
(g63
g64
NtRp1994
(dp1995
g67
(dp1996
g75
I4
ssg76
g1990
sg69
(lp1997
S'set([])'
p1998
asbasbasbag62
(g78
g64
NtRp1999
(dp2000
g67
(dp2001
sg76
g1888
sg69
(lp2002
g62
(g83
g64
NtRp2003
(dp2004
g67
(dp2005
g87
g88
ssg76
g1999
sg69
(lp2006
g952
asbag62
(g83
g64
NtRp2007
(dp2008
g67
(dp2009
g94
g95
ssg76
g1999
sg69
(lp2010
S':'
asbag62
(g83
g64
NtRp2011
(dp2012
g67
(dp2013
sg76
g1999
sg69
(lp2014
g62
(g63
g64
NtRp2015
(dp2016
g67
(dp2017
g75
I4
ssg76
g2011
sg69
(lp2018
g105
asbasbasbag62
(g78
g64
NtRp2019
(dp2020
g67
(dp2021
sg76
g1888
sg69
(lp2022
g62
(g83
g64
NtRp2023
(dp2024
g67
(dp2025
g87
g88
ssg76
g2019
sg69
(lp2026
g973
asbag62
(g83
g64
NtRp2027
(dp2028
g67
(dp2029
g94
g95
ssg76
g2019
sg69
(lp2030
S':'
asbag62
(g83
g64
NtRp2031
(dp2032
g67
(dp2033
sg76
g2019
sg69
(lp2034
g62
(g63
g64
NtRp2035
(dp2036
g67
(dp2037
g75
I4
ssg76
g2031
sg69
(lp2038
g986
asbasbasbag62
(g78
g64
NtRp2039
(dp2040
g67
(dp2041
sg76
g1888
sg69
(lp2042
g62
(g83
g64
NtRp2043
(dp2044
g67
(dp2045
g87
g88
ssg76
g2039
sg69
(lp2046
g1193
asbag62
(g83
g64
NtRp2047
(dp2048
g67
(dp2049
g94
g95
ssg76
g2039
sg69
(lp2050
S':'
asbag62
(g83
g64
NtRp2051
(dp2052
g67
(dp2053
sg76
g2039
sg69
(lp2054
g62
(g63
g64
NtRp2055
(dp2056
g67
(dp2057
g75
I4
ssg76
g2051
sg69
(lp2058
g105
asbasbasbag62
(g78
g64
NtRp2059
(dp2060
g67
(dp2061
sg76
g1888
sg69
(lp2062
g62
(g83
g64
NtRp2063
(dp2064
g67
(dp2065
g87
g88
ssg76
g2059
sg69
(lp2066
g1214
asbag62
(g83
g64
NtRp2067
(dp2068
g67
(dp2069
g94
g95
ssg76
g2059
sg69
(lp2070
S':'
asbag62
(g83
g64
NtRp2071
(dp2072
g67
(dp2073
sg76
g2059
sg69
(lp2074
g62
(g63
g64
NtRp2075
(dp2076
g67
(dp2077
g75
I4
ssg76
g2071
sg69
(lp2078
g105
asbasbasbag62
(g78
g64
NtRp2079
(dp2080
g67
(dp2081
sg76
g1888
sg69
(lp2082
g62
(g83
g64
NtRp2083
(dp2084
g67
(dp2085
g87
g88
ssg76
g2079
sg69
(lp2086
g1452
asbag62
(g83
g64
NtRp2087
(dp2088
g67
(dp2089
g94
g95
ssg76
g2079
sg69
(lp2090
S':'
asbag62
(g83
g64
NtRp2091
(dp2092
g67
(dp2093
sg76
g2079
sg69
(lp2094
g62
(g63
g64
NtRp2095
(dp2096
g67
(dp2097
g75
I4
ssg76
g2091
sg69
(lp2098
g1465
asbasbasbag62
(g78
g64
NtRp2099
(dp2100
g67
(dp2101
sg76
g1888
sg69
(lp2102
g62
(g83
g64
NtRp2103
(dp2104
g67
(dp2105
g87
g88
ssg76
g2099
sg69
(lp2106
g1495
asbag62
(g83
g64
NtRp2107
(dp2108
g67
(dp2109
g94
g95
ssg76
g2099
sg69
(lp2110
S':'
asbag62
(g83
g64
NtRp2111
(dp2112
g67
(dp2113
sg76
g2099
sg69
(lp2114
g62
(g63
g64
NtRp2115
(dp2116
g67
(dp2117
g75
I4
ssg76
g2111
sg69
(lp2118
g62
(g71
g64
NtRp2119
(dp2120
g67
(dp2121
g75
I3
ssg76
Nsg69
(lp2122
g62
(g78
g64
NtRp2123
(dp2124
g67
(dp2125
sg76
g2119
sg69
(lp2126
g62
(g83
g64
NtRp2127
(dp2128
g67
(dp2129
sg76
g2123
sg69
(lp2130
g62
(g63
g64
NtRp2131
(dp2132
g67
(dp2133
g75
I3
ssg76
g2127
sg69
(lp2134
S'1'
asbasbasbag62
(g78
g64
NtRp2135
(dp2136
g67
(dp2137
sg76
g2119
sg69
(lp2138
g62
(g83
g64
NtRp2139
(dp2140
g67
(dp2141
sg76
g2135
sg69
(lp2142
g62
(g63
g64
NtRp2143
(dp2144
g67
(dp2145
g75
I3
ssg76
g2139
sg69
(lp2146
S'99'
p2147
asbasbasbag62
(g78
g64
NtRp2148
(dp2149
g67
(dp2150
sg76
g2119
sg69
(lp2151
g62
(g83
g64
NtRp2152
(dp2153
g67
(dp2154
sg76
g2148
sg69
(lp2155
g62
(g63
g64
NtRp2156
(dp2157
g67
(dp2158
g75
I3
ssg76
g2152
sg69
(lp2159
S'7'
asbasbasbag62
(g78
g64
NtRp2160
(dp2161
g67
(dp2162
sg76
g2119
sg69
(lp2163
g62
(g83
g64
NtRp2164
(dp2165
g67
(dp2166
sg76
g2160
sg69
(lp2167
g62
(g63
g64
NtRp2168
(dp2169
g67
(dp2170
g75
I3
ssg76
g2164
sg69
(lp2171
S'datetime.datetime(2012, 3, 4, 22, 12, 8)'
p2172
asbasbasbag62
(g78
g64
NtRp2173
(dp2174
g67
(dp2175
sg76
g2119
sg69
(lp2176
g62
(g83
g64
NtRp2177
(dp2178
g67
(dp2179
sg76
g2173
sg69
(lp2180
g62
(g63
g64
NtRp2181
(dp2182
g67
(dp2183
g75
I3
ssg76
g2177
sg69
(lp2184
g1574
asbasbasbasbasbasbasbasbasbasbasbag62
(g78
g64
NtRp2185
(dp2186
g67
(dp2187
sg76
g72
sg69
(lp2188
g62
(g83
g64
NtRp2189
(dp2190
g67
(dp2191
g87
g88
ssg76
g2185
sg69
(lp2192
S'is_https'
p2193
asbag62
(g83
g64
NtRp2194
(dp2195
g67
(dp2196
g94
g95
ssg76
g2185
sg69
(lp2197
S':'
asbag62
(g83
g64
NtRp2198
(dp2199
g67
(dp2200
sg76
g2185
sg69
(lp2201
g62
(g63
g64
NtRp2202
(dp2203
g67
(dp2204
g75
I5
ssg76
g2198
sg69
(lp2205
g105
asbasbasbag62
(g78
g64
NtRp2206
(dp2207
g67
(dp2208
sg76
g72
sg69
(lp2209
g62
(g83
g64
NtRp2210
(dp2211
g67
(dp2212
g87
g88
ssg76
g2206
sg69
(lp2213
S'is_local'
p2214
asbag62
(g83
g64
NtRp2215
(dp2216
g67
(dp2217
g94
g95
ssg76
g2206
sg69
(lp2218
S':'
asbag62
(g83
g64
NtRp2219
(dp2220
g67
(dp2221
sg76
g2206
sg69
(lp2222
g62
(g63
g64
NtRp2223
(dp2224
g67
(dp2225
g75
I5
ssg76
g2219
sg69
(lp2226
g1683
asbasbasbag62
(g78
g64
NtRp2227
(dp2228
g67
(dp2229
sg76
g72
sg69
(lp2230
g62
(g83
g64
NtRp2231
(dp2232
g67
(dp2233
g87
g88
ssg76
g2227
sg69
(lp2234
S'is_restful'
p2235
asbag62
(g83
g64
NtRp2236
(dp2237
g67
(dp2238
g94
g95
ssg76
g2227
sg69
(lp2239
S':'
asbag62
(g83
g64
NtRp2240
(dp2241
g67
(dp2242
sg76
g2227
sg69
(lp2243
g62
(g63
g64
NtRp2244
(dp2245
g67
(dp2246
g75
I5
ssg76
g2240
sg69
(lp2247
g105
asbasbasbag62
(g78
g64
NtRp2248
(dp2249
g67
(dp2250
sg76
g72
sg69
(lp2251
g62
(g83
g64
NtRp2252
(dp2253
g67
(dp2254
g87
g88
ssg76
g2248
sg69
(lp2255
S'now'
p2256
asbag62
(g83
g64
NtRp2257
(dp2258
g67
(dp2259
g94
g95
ssg76
g2248
sg69
(lp2260
S':'
asbag62
(g83
g64
NtRp2261
(dp2262
g67
(dp2263
sg76
g2248
sg69
(lp2264
g62
(g63
g64
NtRp2265
(dp2266
g67
(dp2267
g75
I5
ssg76
g2261
sg69
(lp2268
S'datetime.datetime(2012, 3, 18, 17, 37, 35, 749161)'
p2269
asbasbasbag62
(g78
g64
NtRp2270
(dp2271
g67
(dp2272
sg76
g72
sg69
(lp2273
g62
(g83
g64
NtRp2274
(dp2275
g67
(dp2276
g87
g88
ssg76
g2270
sg69
(lp2277
S'post_vars'
p2278
asbag62
(g83
g64
NtRp2279
(dp2280
g67
(dp2281
g94
g95
ssg76
g2270
sg69
(lp2282
S':'
asbag62
(g83
g64
NtRp2283
(dp2284
g67
(dp2285
sg76
g2270
sg69
(lp2286
g62
(g63
g64
NtRp2287
(dp2288
g67
(dp2289
g75
I5
ssg76
g2283
sg69
(lp2290
g62
(g71
g64
NtRp2291
(dp2292
g67
(dp2293
g75
I4
ssg76
Nsg69
(lp2294
sbasbasbasbag62
(g78
g64
NtRp2295
(dp2296
g67
(dp2297
sg76
g72
sg69
(lp2298
g62
(g83
g64
NtRp2299
(dp2300
g67
(dp2301
g87
g88
ssg76
g2295
sg69
(lp2302
S'url'
p2303
asbag62
(g83
g64
NtRp2304
(dp2305
g67
(dp2306
g94
g95
ssg76
g2295
sg69
(lp2307
S':'
asbag62
(g83
g64
NtRp2308
(dp2309
g67
(dp2310
sg76
g2295
sg69
(lp2311
g62
(g63
g64
NtRp2312
(dp2313
g67
(dp2314
g75
I5
ssg76
g2308
sg69
(lp2315
S'/hiremeintech/default/index'
p2316
asbasbasbag62
(g78
g64
NtRp2317
(dp2318
g67
(dp2319
sg76
g72
sg69
(lp2320
g62
(g83
g64
NtRp2321
(dp2322
g67
(dp2323
g87
g88
ssg76
g2317
sg69
(lp2324
S'utcnow'
p2325
asbag62
(g83
g64
NtRp2326
(dp2327
g67
(dp2328
g94
g95
ssg76
g2317
sg69
(lp2329
S':'
asbag62
(g83
g64
NtRp2330
(dp2331
g67
(dp2332
sg76
g2317
sg69
(lp2333
g62
(g63
g64
NtRp2334
(dp2335
g67
(dp2336
g75
I5
ssg76
g2330
sg69
(lp2337
S'datetime.datetime(2012, 3, 19, 0, 37, 35, 749172)'
p2338
asbasbasbag62
(g78
g64
NtRp2339
(dp2340
g67
(dp2341
sg76
g72
sg69
(lp2342
g62
(g83
g64
NtRp2343
(dp2344
g67
(dp2345
g87
g88
ssg76
g2339
sg69
(lp2346
S'uuid'
p2347
asbag62
(g83
g64
NtRp2348
(dp2349
g67
(dp2350
g94
g95
ssg76
g2339
sg69
(lp2351
S':'
asbag62
(g83
g64
NtRp2352
(dp2353
g67
(dp2354
sg76
g2339
sg69
(lp2355
g62
(g63
g64
NtRp2356
(dp2357
g67
(dp2358
g75
I5
ssg76
g2352
sg69
(lp2359
S'hiremeintech/127.0.0.1.2012-03-18.17-37-35.dee72f9b-39a1-471e-9747-da0a3aade7cb'
p2360
asbasbasbag62
(g78
g64
NtRp2361
(dp2362
g67
(dp2363
sg76
g72
sg69
(lp2364
g62
(g83
g64
NtRp2365
(dp2366
g67
(dp2367
g87
g88
ssg76
g2361
sg69
(lp2368
S'vars'
p2369
asbag62
(g83
g64
NtRp2370
(dp2371
g67
(dp2372
g94
g95
ssg76
g2361
sg69
(lp2373
S':'
asbag62
(g83
g64
NtRp2374
(dp2375
g67
(dp2376
sg76
g2361
sg69
(lp2377
g62
(g63
g64
NtRp2378
(dp2379
g67
(dp2380
g75
I5
ssg76
g2374
sg69
(lp2381
g62
(g71
g64
NtRp2382
(dp2383
g67
(dp2384
g75
I4
ssg76
Nsg69
(lp2385
sbasbasbasbag62
(g78
g64
NtRp2386
(dp2387
g67
(dp2388
sg76
g72
sg69
(lp2389
g62
(g83
g64
NtRp2390
(dp2391
g67
(dp2392
g87
g88
ssg76
g2386
sg69
(lp2393
S'wsgi'
p2394
asbag62
(g83
g64
NtRp2395
(dp2396
g67
(dp2397
g94
g95
ssg76
g2386
sg69
(lp2398
S':'
asbag62
(g83
g64
NtRp2399
(dp2400
g67
(dp2401
sg76
g2386
sg69
(lp2402
g62
(g63
g64
NtRp2403
(dp2404
g67
(dp2405
g75
I5
ssg76
g2399
sg69
(lp2406
g62
(g71
g64
NtRp2407
(dp2408
g67
(dp2409
g75
I4
ssg76
Nsg69
(lp2410
g62
(g78
g64
NtRp2411
(dp2412
g67
(dp2413
sg76
g2407
sg69
(lp2414
g62
(g83
g64
NtRp2415
(dp2416
g67
(dp2417
g87
g88
ssg76
g2411
sg69
(lp2418
S'environ'
p2419
asbag62
(g83
g64
NtRp2420
(dp2421
g67
(dp2422
g94
g95
ssg76
g2411
sg69
(lp2423
S':'
asbag62
(g83
g64
NtRp2424
(dp2425
g67
(dp2426
sg76
g2411
sg69
(lp2427
g62
(g63
g64
NtRp2428
(dp2429
g67
(dp2430
g75
I4
ssg76
g2424
sg69
(lp2431
g62
(g71
g64
NtRp2432
(dp2433
g67
(dp2434
g75
I3
ssg76
Nsg69
(lp2435
g62
(g78
g64
NtRp2436
(dp2437
g67
(dp2438
sg76
g2432
sg69
(lp2439
g62
(g83
g64
NtRp2440
(dp2441
g67
(dp2442
g87
g88
ssg76
g2436
sg69
(lp2443
S'HTTP_ACCEPT'
p2444
asbag62
(g83
g64
NtRp2445
(dp2446
g67
(dp2447
g94
g95
ssg76
g2436
sg69
(lp2448
S':'
asbag62
(g83
g64
NtRp2449
(dp2450
g67
(dp2451
sg76
g2436
sg69
(lp2452
g62
(g63
g64
NtRp2453
(dp2454
g67
(dp2455
g75
I3
ssg76
g2449
sg69
(lp2456
g1008
asbasbasbag62
(g78
g64
NtRp2457
(dp2458
g67
(dp2459
sg76
g2432
sg69
(lp2460
g62
(g83
g64
NtRp2461
(dp2462
g67
(dp2463
g87
g88
ssg76
g2457
sg69
(lp2464
S'HTTP_ACCEPT_CHARSET'
p2465
asbag62
(g83
g64
NtRp2466
(dp2467
g67
(dp2468
g94
g95
ssg76
g2457
sg69
(lp2469
S':'
asbag62
(g83
g64
NtRp2470
(dp2471
g67
(dp2472
sg76
g2457
sg69
(lp2473
g62
(g63
g64
NtRp2474
(dp2475
g67
(dp2476
g75
I3
ssg76
g2470
sg69
(lp2477
g1030
asbasbasbag62
(g78
g64
NtRp2478
(dp2479
g67
(dp2480
sg76
g2432
sg69
(lp2481
g62
(g83
g64
NtRp2482
(dp2483
g67
(dp2484
g87
g88
ssg76
g2478
sg69
(lp2485
S'HTTP_ACCEPT_ENCODING'
p2486
asbag62
(g83
g64
NtRp2487
(dp2488
g67
(dp2489
g94
g95
ssg76
g2478
sg69
(lp2490
S':'
asbag62
(g83
g64
NtRp2491
(dp2492
g67
(dp2493
sg76
g2478
sg69
(lp2494
g62
(g63
g64
NtRp2495
(dp2496
g67
(dp2497
g75
I3
ssg76
g2491
sg69
(lp2498
g1052
asbasbasbag62
(g78
g64
NtRp2499
(dp2500
g67
(dp2501
sg76
g2432
sg69
(lp2502
g62
(g83
g64
NtRp2503
(dp2504
g67
(dp2505
g87
g88
ssg76
g2499
sg69
(lp2506
S'HTTP_ACCEPT_LANGUAGE'
p2507
asbag62
(g83
g64
NtRp2508
(dp2509
g67
(dp2510
g94
g95
ssg76
g2499
sg69
(lp2511
S':'
asbag62
(g83
g64
NtRp2512
(dp2513
g67
(dp2514
sg76
g2499
sg69
(lp2515
g62
(g63
g64
NtRp2516
(dp2517
g67
(dp2518
g75
I3
ssg76
g2512
sg69
(lp2519
g1074
asbasbasbag62
(g78
g64
NtRp2520
(dp2521
g67
(dp2522
sg76
g2432
sg69
(lp2523
g62
(g83
g64
NtRp2524
(dp2525
g67
(dp2526
g87
g88
ssg76
g2520
sg69
(lp2527
S'HTTP_CACHE_CONTROL'
p2528
asbag62
(g83
g64
NtRp2529
(dp2530
g67
(dp2531
g94
g95
ssg76
g2520
sg69
(lp2532
S':'
asbag62
(g83
g64
NtRp2533
(dp2534
g67
(dp2535
sg76
g2520
sg69
(lp2536
g62
(g63
g64
NtRp2537
(dp2538
g67
(dp2539
g75
I3
ssg76
g2533
sg69
(lp2540
g1096
asbasbasbag62
(g78
g64
NtRp2541
(dp2542
g67
(dp2543
sg76
g2432
sg69
(lp2544
g62
(g83
g64
NtRp2545
(dp2546
g67
(dp2547
g87
g88
ssg76
g2541
sg69
(lp2548
S'HTTP_CONNECTION'
p2549
asbag62
(g83
g64
NtRp2550
(dp2551
g67
(dp2552
g94
g95
ssg76
g2541
sg69
(lp2553
S':'
asbag62
(g83
g64
NtRp2554
(dp2555
g67
(dp2556
sg76
g2541
sg69
(lp2557
g62
(g63
g64
NtRp2558
(dp2559
g67
(dp2560
g75
I3
ssg76
g2554
sg69
(lp2561
g1118
asbasbasbag62
(g78
g64
NtRp2562
(dp2563
g67
(dp2564
sg76
g2432
sg69
(lp2565
g62
(g83
g64
NtRp2566
(dp2567
g67
(dp2568
g87
g88
ssg76
g2562
sg69
(lp2569
S'HTTP_COOKIE'
p2570
asbag62
(g83
g64
NtRp2571
(dp2572
g67
(dp2573
g94
g95
ssg76
g2562
sg69
(lp2574
S':'
asbag62
(g83
g64
NtRp2575
(dp2576
g67
(dp2577
sg76
g2562
sg69
(lp2578
g62
(g63
g64
NtRp2579
(dp2580
g67
(dp2581
g75
I3
ssg76
g2575
sg69
(lp2582
g1140
asbasbasbag62
(g78
g64
NtRp2583
(dp2584
g67
(dp2585
sg76
g2432
sg69
(lp2586
g62
(g83
g64
NtRp2587
(dp2588
g67
(dp2589
g87
g88
ssg76
g2583
sg69
(lp2590
S'HTTP_HOST'
p2591
asbag62
(g83
g64
NtRp2592
(dp2593
g67
(dp2594
g94
g95
ssg76
g2583
sg69
(lp2595
S':'
asbag62
(g83
g64
NtRp2596
(dp2597
g67
(dp2598
sg76
g2583
sg69
(lp2599
g62
(g63
g64
NtRp2600
(dp2601
g67
(dp2602
g75
I3
ssg76
g2596
sg69
(lp2603
g1162
asbasbasbag62
(g78
g64
NtRp2604
(dp2605
g67
(dp2606
sg76
g2432
sg69
(lp2607
g62
(g83
g64
NtRp2608
(dp2609
g67
(dp2610
g87
g88
ssg76
g2604
sg69
(lp2611
S'HTTP_USER_AGENT'
p2612
asbag62
(g83
g64
NtRp2613
(dp2614
g67
(dp2615
g94
g95
ssg76
g2604
sg69
(lp2616
S':'
asbag62
(g83
g64
NtRp2617
(dp2618
g67
(dp2619
sg76
g2604
sg69
(lp2620
g62
(g63
g64
NtRp2621
(dp2622
g67
(dp2623
g75
I3
ssg76
g2617
sg69
(lp2624
g1184
asbasbasbag62
(g78
g64
NtRp2625
(dp2626
g67
(dp2627
sg76
g2432
sg69
(lp2628
g62
(g83
g64
NtRp2629
(dp2630
g67
(dp2631
g87
g88
ssg76
g2625
sg69
(lp2632
S'PATH_INFO'
p2633
asbag62
(g83
g64
NtRp2634
(dp2635
g67
(dp2636
g94
g95
ssg76
g2625
sg69
(lp2637
S':'
asbag62
(g83
g64
NtRp2638
(dp2639
g67
(dp2640
sg76
g2625
sg69
(lp2641
g62
(g63
g64
NtRp2642
(dp2643
g67
(dp2644
g75
I3
ssg76
g2638
sg69
(lp2645
g1248
asbasbasbag62
(g78
g64
NtRp2646
(dp2647
g67
(dp2648
sg76
g2432
sg69
(lp2649
g62
(g83
g64
NtRp2650
(dp2651
g67
(dp2652
g87
g88
ssg76
g2646
sg69
(lp2653
S'QUERY_STRING'
p2654
asbag62
(g83
g64
NtRp2655
(dp2656
g67
(dp2657
g94
g95
ssg76
g2646
sg69
(lp2658
S':'
asbag62
(g83
g64
NtRp2659
(dp2660
g67
(dp2661
sg76
g2646
sg69
(lp2662
g62
(g63
g64
NtRp2663
(dp2664
g67
(dp2665
g75
I3
ssg76
g2659
sg69
(lp2666
S''
asbasbasbag62
(g78
g64
NtRp2667
(dp2668
g67
(dp2669
sg76
g2432
sg69
(lp2670
g62
(g83
g64
NtRp2671
(dp2672
g67
(dp2673
g87
g88
ssg76
g2667
sg69
(lp2674
S'REMOTE_ADDR'
p2675
asbag62
(g83
g64
NtRp2676
(dp2677
g67
(dp2678
g94
g95
ssg76
g2667
sg69
(lp2679
S':'
asbag62
(g83
g64
NtRp2680
(dp2681
g67
(dp2682
sg76
g2667
sg69
(lp2683
g62
(g63
g64
NtRp2684
(dp2685
g67
(dp2686
g75
I3
ssg76
g2680
sg69
(lp2687
g195
asbasbasbag62
(g78
g64
NtRp2688
(dp2689
g67
(dp2690
sg76
g2432
sg69
(lp2691
g62
(g83
g64
NtRp2692
(dp2693
g67
(dp2694
g87
g88
ssg76
g2688
sg69
(lp2695
S'REMOTE_PORT'
p2696
asbag62
(g83
g64
NtRp2697
(dp2698
g67
(dp2699
g94
g95
ssg76
g2688
sg69
(lp2700
S':'
asbag62
(g83
g64
NtRp2701
(dp2702
g67
(dp2703
sg76
g2688
sg69
(lp2704
g62
(g63
g64
NtRp2705
(dp2706
g67
(dp2707
g75
I3
ssg76
g2701
sg69
(lp2708
g1312
asbasbasbag62
(g78
g64
NtRp2709
(dp2710
g67
(dp2711
sg76
g2432
sg69
(lp2712
g62
(g83
g64
NtRp2713
(dp2714
g67
(dp2715
g87
g88
ssg76
g2709
sg69
(lp2716
S'REQUEST_METHOD'
p2717
asbag62
(g83
g64
NtRp2718
(dp2719
g67
(dp2720
g94
g95
ssg76
g2709
sg69
(lp2721
S':'
asbag62
(g83
g64
NtRp2722
(dp2723
g67
(dp2724
sg76
g2709
sg69
(lp2725
g62
(g63
g64
NtRp2726
(dp2727
g67
(dp2728
g75
I3
ssg76
g2722
sg69
(lp2729
g1334
asbasbasbag62
(g78
g64
NtRp2730
(dp2731
g67
(dp2732
sg76
g2432
sg69
(lp2733
g62
(g83
g64
NtRp2734
(dp2735
g67
(dp2736
g87
g88
ssg76
g2730
sg69
(lp2737
S'SCRIPT_NAME'
p2738
asbag62
(g83
g64
NtRp2739
(dp2740
g67
(dp2741
g94
g95
ssg76
g2730
sg69
(lp2742
S':'
asbag62
(g83
g64
NtRp2743
(dp2744
g67
(dp2745
sg76
g2730
sg69
(lp2746
g62
(g63
g64
NtRp2747
(dp2748
g67
(dp2749
g75
I3
ssg76
g2743
sg69
(lp2750
S''
asbasbasbag62
(g78
g64
NtRp2751
(dp2752
g67
(dp2753
sg76
g2432
sg69
(lp2754
g62
(g83
g64
NtRp2755
(dp2756
g67
(dp2757
g87
g88
ssg76
g2751
sg69
(lp2758
S'SERVER_NAME'
p2759
asbag62
(g83
g64
NtRp2760
(dp2761
g67
(dp2762
g94
g95
ssg76
g2751
sg69
(lp2763
S':'
asbag62
(g83
g64
NtRp2764
(dp2765
g67
(dp2766
sg76
g2751
sg69
(lp2767
g62
(g63
g64
NtRp2768
(dp2769
g67
(dp2770
g75
I3
ssg76
g2764
sg69
(lp2771
g1377
asbasbasbag62
(g78
g64
NtRp2772
(dp2773
g67
(dp2774
sg76
g2432
sg69
(lp2775
g62
(g83
g64
NtRp2776
(dp2777
g67
(dp2778
g87
g88
ssg76
g2772
sg69
(lp2779
S'SERVER_PORT'
p2780
asbag62
(g83
g64
NtRp2781
(dp2782
g67
(dp2783
g94
g95
ssg76
g2772
sg69
(lp2784
S':'
asbag62
(g83
g64
NtRp2785
(dp2786
g67
(dp2787
sg76
g2772
sg69
(lp2788
g62
(g63
g64
NtRp2789
(dp2790
g67
(dp2791
g75
I3
ssg76
g2785
sg69
(lp2792
g1399
asbasbasbag62
(g78
g64
NtRp2793
(dp2794
g67
(dp2795
sg76
g2432
sg69
(lp2796
g62
(g83
g64
NtRp2797
(dp2798
g67
(dp2799
g87
g88
ssg76
g2793
sg69
(lp2800
S'SERVER_PROTOCOL'
p2801
asbag62
(g83
g64
NtRp2802
(dp2803
g67
(dp2804
g94
g95
ssg76
g2793
sg69
(lp2805
S':'
asbag62
(g83
g64
NtRp2806
(dp2807
g67
(dp2808
sg76
g2793
sg69
(lp2809
g62
(g63
g64
NtRp2810
(dp2811
g67
(dp2812
g75
I3
ssg76
g2806
sg69
(lp2813
g1421
asbasbasbag62
(g78
g64
NtRp2814
(dp2815
g67
(dp2816
sg76
g2432
sg69
(lp2817
g62
(g83
g64
NtRp2818
(dp2819
g67
(dp2820
g87
g88
ssg76
g2814
sg69
(lp2821
S'SERVER_SOFTWARE'
p2822
asbag62
(g83
g64
NtRp2823
(dp2824
g67
(dp2825
g94
g95
ssg76
g2814
sg69
(lp2826
S':'
asbag62
(g83
g64
NtRp2827
(dp2828
g67
(dp2829
sg76
g2814
sg69
(lp2830
g62
(g63
g64
NtRp2831
(dp2832
g67
(dp2833
g75
I3
ssg76
g2827
sg69
(lp2834
g1443
asbasbasbag62
(g78
g64
NtRp2835
(dp2836
g67
(dp2837
sg76
g2432
sg69
(lp2838
g62
(g83
g64
NtRp2839
(dp2840
g67
(dp2841
g87
g88
ssg76
g2835
sg69
(lp2842
S'wsgi.errors'
p2843
asbag62
(g83
g64
NtRp2844
(dp2845
g67
(dp2846
g94
g95
ssg76
g2835
sg69
(lp2847
S':'
asbag62
(g83
g64
NtRp2848
(dp2849
g67
(dp2850
sg76
g2835
sg69
(lp2851
g62
(g63
g64
NtRp2852
(dp2853
g67
(dp2854
g75
I3
ssg76
g2848
sg69
(lp2855
S"<open file '<stderr>', mode 'w' at 0x108918270>"
p2856
asbasbasbag62
(g78
g64
NtRp2857
(dp2858
g67
(dp2859
sg76
g2432
sg69
(lp2860
g62
(g83
g64
NtRp2861
(dp2862
g67
(dp2863
g87
g88
ssg76
g2857
sg69
(lp2864
S'wsgi.file_wrapper'
p2865
asbag62
(g83
g64
NtRp2866
(dp2867
g67
(dp2868
g94
g95
ssg76
g2857
sg69
(lp2869
S':'
asbag62
(g83
g64
NtRp2870
(dp2871
g67
(dp2872
sg76
g2857
sg69
(lp2873
g62
(g63
g64
NtRp2874
(dp2875
g67
(dp2876
g75
I3
ssg76
g2870
sg69
(lp2877
S'<class wsgiref.util.FileWrapper at 0x10928e258>'
p2878
asbasbasbag62
(g78
g64
NtRp2879
(dp2880
g67
(dp2881
sg76
g2432
sg69
(lp2882
g62
(g83
g64
NtRp2883
(dp2884
g67
(dp2885
g87
g88
ssg76
g2879
sg69
(lp2886
S'wsgi.input'
p2887
asbag62
(g83
g64
NtRp2888
(dp2889
g67
(dp2890
g94
g95
ssg76
g2879
sg69
(lp2891
S':'
asbag62
(g83
g64
NtRp2892
(dp2893
g67
(dp2894
sg76
g2879
sg69
(lp2895
g62
(g63
g64
NtRp2896
(dp2897
g67
(dp2898
g75
I3
ssg76
g2892
sg69
(lp2899
S'<cStringIO.StringO object at 0x10ed7a180>'
p2900
asbasbasbag62
(g78
g64
NtRp2901
(dp2902
g67
(dp2903
sg76
g2432
sg69
(lp2904
g62
(g83
g64
NtRp2905
(dp2906
g67
(dp2907
g87
g88
ssg76
g2901
sg69
(lp2908
S'wsgi.multiprocess'
p2909
asbag62
(g83
g64
NtRp2910
(dp2911
g67
(dp2912
g94
g95
ssg76
g2901
sg69
(lp2913
S':'
asbag62
(g83
g64
NtRp2914
(dp2915
g67
(dp2916
sg76
g2901
sg69
(lp2917
g62
(g63
g64
NtRp2918
(dp2919
g67
(dp2920
g75
I3
ssg76
g2914
sg69
(lp2921
g105
asbasbasbag62
(g78
g64
NtRp2922
(dp2923
g67
(dp2924
sg76
g2432
sg69
(lp2925
g62
(g83
g64
NtRp2926
(dp2927
g67
(dp2928
g87
g88
ssg76
g2922
sg69
(lp2929
S'wsgi.multithread'
p2930
asbag62
(g83
g64
NtRp2931
(dp2932
g67
(dp2933
g94
g95
ssg76
g2922
sg69
(lp2934
S':'
asbag62
(g83
g64
NtRp2935
(dp2936
g67
(dp2937
sg76
g2922
sg69
(lp2938
g62
(g63
g64
NtRp2939
(dp2940
g67
(dp2941
g75
I3
ssg76
g2935
sg69
(lp2942
g1683
asbasbasbag62
(g78
g64
NtRp2943
(dp2944
g67
(dp2945
sg76
g2432
sg69
(lp2946
g62
(g83
g64
NtRp2947
(dp2948
g67
(dp2949
g87
g88
ssg76
g2943
sg69
(lp2950
S'wsgi.run_once'
p2951
asbag62
(g83
g64
NtRp2952
(dp2953
g67
(dp2954
g94
g95
ssg76
g2943
sg69
(lp2955
S':'
asbag62
(g83
g64
NtRp2956
(dp2957
g67
(dp2958
sg76
g2943
sg69
(lp2959
g62
(g63
g64
NtRp2960
(dp2961
g67
(dp2962
g75
I3
ssg76
g2956
sg69
(lp2963
g105
asbasbasbag62
(g78
g64
NtRp2964
(dp2965
g67
(dp2966
sg76
g2432
sg69
(lp2967
g62
(g83
g64
NtRp2968
(dp2969
g67
(dp2970
g87
g88
ssg76
g2964
sg69
(lp2971
S'wsgi.url_scheme'
p2972
asbag62
(g83
g64
NtRp2973
(dp2974
g67
(dp2975
g94
g95
ssg76
g2964
sg69
(lp2976
S':'
asbag62
(g83
g64
NtRp2977
(dp2978
g67
(dp2979
sg76
g2964
sg69
(lp2980
g62
(g63
g64
NtRp2981
(dp2982
g67
(dp2983
g75
I3
ssg76
g2977
sg69
(lp2984
g1726
asbasbasbag62
(g78
g64
NtRp2985
(dp2986
g67
(dp2987
sg76
g2432
sg69
(lp2988
g62
(g83
g64
NtRp2989
(dp2990
g67
(dp2991
g87
g88
ssg76
g2985
sg69
(lp2992
S'wsgi.version'
p2993
asbag62
(g83
g64
NtRp2994
(dp2995
g67
(dp2996
g94
g95
ssg76
g2985
sg69
(lp2997
S':'
asbag62
(g83
g64
NtRp2998
(dp2999
g67
(dp3000
sg76
g2985
sg69
(lp3001
g62
(g63
g64
NtRp3002
(dp3003
g67
(dp3004
g75
I3
ssg76
g2998
sg69
(lp3005
S'1'
asbasbasbasbasbasbasbasbasbasbasbasbasbsS'frames'
p3006
(lp3007
(dp3008
S'file'
p3009
S'/Users/robertdo/hiremeintech/gluon/restricted.py'
p3010
sS'dump'
p3011
(dp3012
S'environment'
p3013
S"{'A': <class 'gluon.html.A'>, 'Auth': <class 'gluon.tools.Auth'>, 'B': <class 'gluon.html.B'>, 'BEAUTIFY': <class 'gluon.html.BEAUTIFY'>, 'BODY': <class 'gluon.html.BODY'>, 'BR': <class 'gluon.html.BR'>, 'BUTTON': <class 'gluon.html.BUTTON'>, 'CAT': <class 'gluon.html.CAT'>, 'CENTER': <class 'gluon.html.CENTER'>, 'CLEANUP': <class 'gluon.validators.CLEANUP'>, ...}"
p3014
sS'ccode'
p3015
S'<code object <module> at 0x10e1d64b0, file "/Use...ons/hiremeintech/controllers/default.py", line 3>'
p3016
ssS'lnum'
p3017
I205
sS'lines'
p3018
(dp3019
I200
S'    try:'
p3020
sI201
S'        if type(code) == types.CodeType:'
p3021
sI202
S'            ccode = code'
p3022
sI203
S'        else:'
p3023
sI204
S'            ccode = compile2(code,layer)'
p3024
sI205
S'        exec ccode in environment'
p3025
sI206
S'    except HTTP:'
p3026
sI207
S'        raise'
p3027
sI208
S'    except RestrictedError:'
p3028
sI209
S'        # do not encapsulate (obfuscate) the original RestrictedError'
p3029
ssS'call'
p3030
S"(code='# -*- coding: utf-8 -*-\\n### required - do no del... dict()\\n\\n\\nresponse._vars=response._caller(index)\\n', environment={'A': <class 'gluon.html.A'>, 'Auth': <class 'gluon.tools.Auth'>, 'B': <class 'gluon.html.B'>, 'BEAUTIFY': <class 'gluon.html.BEAUTIFY'>, 'BODY': <class 'gluon.html.BODY'>, 'BR': <class 'gluon.html.BR'>, 'BUTTON': <class 'gluon.html.BUTTON'>, 'CAT': <class 'gluon.html.CAT'>, 'CENTER': <class 'gluon.html.CENTER'>, 'CLEANUP': <class 'gluon.validators.CLEANUP'>, ...}, layer='/Users/robertdo/hiremeintech/applications/hiremeintech/controllers/default.py')"
p3031
sS'func'
p3032
S'restricted'
p3033
sa(dp3034
g3009
S'/Users/robertdo/hiremeintech/applications/hiremeintech/controllers/default.py'
p3035
sg3011
(dp3036
sg3017
I23
sg3018
(dp3037
I12
S'    return dict(all_jobs=all_jobs)'
p3038
sI13
S''
sI14
S'def info():'
p3039
sI15
S'    job = db.jobs[request.args(0)]'
p3040
sI16
S'    #if not job: raise HTTP(404)'
p3041
sI17
S'    return dict(job=job)'
p3042
sI18
S''
sI19
S'def error():'
p3043
sI20
S'    return dict()'
p3044
sI21
S''
ssg3030
S'()'
p3045
sg3032
S'<module>'
p3046
sa(dp3047
g3009
S'/Users/robertdo/hiremeintech/gluon/globals.py'
p3048
sg3011
(dp3049
S'self'
p3050
S'undefined'
p3051
sS'f'
S'<function index>'
p3052
ssg3017
I173
sg3018
(dp3053
I168
S'        self.menu = []             # used by the default view layout'
p3054
sI169
S'        self.files = []            # used by web2py_ajax.html'
p3055
sI170
S'        self.generic_patterns = [] # patterns to allow generic views'
p3056
sI171
S"        self.delimiters = ('{{','}}')"
p3057
sI172
S'        self._vars = None'
p3058
sI173
S'        self._caller = lambda f: f()'
p3059
sI174
S'        self._view_environment = None'
p3060
sI175
S'        self._custom_commit = None'
p3061
sI176
S'        self._custom_rollback = None'
p3062
sI177
S''
ssg3030
S'(f=<function index>)'
p3063
sg3032
S'<lambda>'
p3064
sa(dp3065
g3009
S'/Users/robertdo/hiremeintech/applications/hiremeintech/controllers/default.py'
p3066
sg3011
(dp3067
S'builtinopen'
p3068
S'<built-in function open>'
p3069
ssg3017
I8
sg3018
(dp3070
I3
S'def user(): return dict(form=auth())'
p3071
sI4
S'def download(): return response.download(request,db)'
p3072
sI5
S'def call(): return service()'
p3073
sI6
S'### end requires'
p3074
sI7
S'def index():'
p3075
sI8
S"    if open('data.csv', 'r'):"
p3076
sI9
S'        db(db.jobs.id>0).delete()'
p3077
sI10
S"        db.jobs.import_from_csv_file(open('data.csv', 'r'))"
p3078
sI11
S'    all_jobs = db(db.jobs.id>0).select()'
p3079
sI12
S'    return dict(all_jobs=all_jobs)'
p3080
ssg3030
S'()'
p3081
sg3032
g1841
sasS'pyver'
p3082
S'Python 2.7.1: /usr/bin/python'
p3083
sS'session'
p3084
g62
(g63
g64
NtRp3085
(dp3086
g67
(dp3087
sg69
(lp3088
g62
(g71
g64
NtRp3089
(dp3090
g67
(dp3091
g75
I5
ssg76
Nsg69
(lp3092
g62
(g78
g64
NtRp3093
(dp3094
g67
(dp3095
sg76
g3089
sg69
(lp3096
g62
(g83
g64
NtRp3097
(dp3098
g67
(dp3099
g87
g88
ssg76
g3093
sg69
(lp3100
S'last_query'
p3101
asbag62
(g83
g64
NtRp3102
(dp3103
g67
(dp3104
g94
g95
ssg76
g3093
sg69
(lp3105
S':'
asbag62
(g83
g64
NtRp3106
(dp3107
g67
(dp3108
sg76
g3093
sg69
(lp3109
g62
(g63
g64
NtRp3110
(dp3111
g67
(dp3112
g75
I5
ssg76
g3106
sg69
(lp3113
S'db.jobs.id>0'
p3114
asbasbasbasbasbsS'etype'
p3115
S"<type 'exceptions.IOError'>"
p3116
sS'date'
p3117
S'Sun Mar 18 17:37:35 2012'
p3118
sS'response'
p3119
g62
(g63
g64
NtRp3120
(dp3121
g67
(dp3122
sg69
(lp3123
g62
(g71
g64
NtRp3124
(dp3125
g67
(dp3126
g75
I5
ssg76
Nsg69
(lp3127
g62
(g78
g64
NtRp3128
(dp3129
g67
(dp3130
sg76
g3124
sg69
(lp3131
g62
(g83
g64
NtRp3132
(dp3133
g67
(dp3134
g87
g88
ssg76
g3128
sg69
(lp3135
g160
asbag62
(g83
g64
NtRp3136
(dp3137
g67
(dp3138
g94
g95
ssg76
g3128
sg69
(lp3139
S':'
asbag62
(g83
g64
NtRp3140
(dp3141
g67
(dp3142
sg76
g3128
sg69
(lp3143
g62
(g63
g64
NtRp3144
(dp3145
g67
(dp3146
g75
I5
ssg76
g3140
sg69
(lp3147
S'<cStringIO.StringO object at 0x10e900d50>'
p3148
asbasbasbag62
(g78
g64
NtRp3149
(dp3150
g67
(dp3151
sg76
g3124
sg69
(lp3152
g62
(g83
g64
NtRp3153
(dp3154
g67
(dp3155
g87
g88
ssg76
g3149
sg69
(lp3156
g226
asbag62
(g83
g64
NtRp3157
(dp3158
g67
(dp3159
g94
g95
ssg76
g3149
sg69
(lp3160
S':'
asbag62
(g83
g64
NtRp3161
(dp3162
g67
(dp3163
sg76
g3149
sg69
(lp3164
g62
(g63
g64
NtRp3165
(dp3166
g67
(dp3167
g75
I5
ssg76
g3161
sg69
(lp3168
g62
(g71
g64
NtRp3169
(dp3170
g67
(dp3171
g75
I4
ssg76
Nsg69
(lp3172
g62
(g78
g64
NtRp3173
(dp3174
g67
(dp3175
sg76
g3169
sg69
(lp3176
g62
(g83
g64
NtRp3177
(dp3178
g67
(dp3179
g87
g88
ssg76
g3173
sg69
(lp3180
S'session_id_hiremeintech'
p3181
asbag62
(g83
g64
NtRp3182
(dp3183
g67
(dp3184
g94
g95
ssg76
g3173
sg69
(lp3185
S':'
asbag62
(g83
g64
NtRp3186
(dp3187
g67
(dp3188
sg76
g3173
sg69
(lp3189
g62
(g63
g64
NtRp3190
(dp3191
g67
(dp3192
g75
I4
ssg76
g3186
sg69
(lp3193
g62
(g71
g64
NtRp3194
(dp3195
g67
(dp3196
g75
I3
ssg76
Nsg69
(lp3197
g62
(g78
g64
NtRp3198
(dp3199
g67
(dp3200
sg76
g3194
sg69
(lp3201
g62
(g83
g64
NtRp3202
(dp3203
g67
(dp3204
g87
g88
ssg76
g3198
sg69
(lp3205
g276
asbag62
(g83
g64
NtRp3206
(dp3207
g67
(dp3208
g94
g95
ssg76
g3198
sg69
(lp3209
S':'
asbag62
(g83
g64
NtRp3210
(dp3211
g67
(dp3212
sg76
g3198
sg69
(lp3213
g62
(g63
g64
NtRp3214
(dp3215
g67
(dp3216
g75
I3
ssg76
g3210
sg69
(lp3217
S''
asbasbasbag62
(g78
g64
NtRp3218
(dp3219
g67
(dp3220
sg76
g3194
sg69
(lp3221
g62
(g83
g64
NtRp3222
(dp3223
g67
(dp3224
g87
g88
ssg76
g3218
sg69
(lp3225
g297
asbag62
(g83
g64
NtRp3226
(dp3227
g67
(dp3228
g94
g95
ssg76
g3218
sg69
(lp3229
S':'
asbag62
(g83
g64
NtRp3230
(dp3231
g67
(dp3232
sg76
g3218
sg69
(lp3233
g62
(g63
g64
NtRp3234
(dp3235
g67
(dp3236
g75
I3
ssg76
g3230
sg69
(lp3237
S''
asbasbasbag62
(g78
g64
NtRp3238
(dp3239
g67
(dp3240
sg76
g3194
sg69
(lp3241
g62
(g83
g64
NtRp3242
(dp3243
g67
(dp3244
g87
g88
ssg76
g3238
sg69
(lp3245
g318
asbag62
(g83
g64
NtRp3246
(dp3247
g67
(dp3248
g94
g95
ssg76
g3238
sg69
(lp3249
S':'
asbag62
(g83
g64
NtRp3250
(dp3251
g67
(dp3252
sg76
g3238
sg69
(lp3253
g62
(g63
g64
NtRp3254
(dp3255
g67
(dp3256
g75
I3
ssg76
g3250
sg69
(lp3257
S''
asbasbasbag62
(g78
g64
NtRp3258
(dp3259
g67
(dp3260
sg76
g3194
sg69
(lp3261
g62
(g83
g64
NtRp3262
(dp3263
g67
(dp3264
g87
g88
ssg76
g3258
sg69
(lp3265
g339
asbag62
(g83
g64
NtRp3266
(dp3267
g67
(dp3268
g94
g95
ssg76
g3258
sg69
(lp3269
S':'
asbag62
(g83
g64
NtRp3270
(dp3271
g67
(dp3272
sg76
g3258
sg69
(lp3273
g62
(g63
g64
NtRp3274
(dp3275
g67
(dp3276
g75
I3
ssg76
g3270
sg69
(lp3277
S''
asbasbasbag62
(g78
g64
NtRp3278
(dp3279
g67
(dp3280
sg76
g3194
sg69
(lp3281
g62
(g83
g64
NtRp3282
(dp3283
g67
(dp3284
g87
g88
ssg76
g3278
sg69
(lp3285
g360
asbag62
(g83
g64
NtRp3286
(dp3287
g67
(dp3288
g94
g95
ssg76
g3278
sg69
(lp3289
S':'
asbag62
(g83
g64
NtRp3290
(dp3291
g67
(dp3292
sg76
g3278
sg69
(lp3293
g62
(g63
g64
NtRp3294
(dp3295
g67
(dp3296
g75
I3
ssg76
g3290
sg69
(lp3297
S''
asbasbasbag62
(g78
g64
NtRp3298
(dp3299
g67
(dp3300
sg76
g3194
sg69
(lp3301
g62
(g83
g64
NtRp3302
(dp3303
g67
(dp3304
g87
g88
ssg76
g3298
sg69
(lp3305
g381
asbag62
(g83
g64
NtRp3306
(dp3307
g67
(dp3308
g94
g95
ssg76
g3298
sg69
(lp3309
S':'
asbag62
(g83
g64
NtRp3310
(dp3311
g67
(dp3312
sg76
g3298
sg69
(lp3313
g62
(g63
g64
NtRp3314
(dp3315
g67
(dp3316
g75
I3
ssg76
g3310
sg69
(lp3317
S'/'
asbasbasbag62
(g78
g64
NtRp3318
(dp3319
g67
(dp3320
sg76
g3194
sg69
(lp3321
g62
(g83
g64
NtRp3322
(dp3323
g67
(dp3324
g87
g88
ssg76
g3318
sg69
(lp3325
g402
asbag62
(g83
g64
NtRp3326
(dp3327
g67
(dp3328
g94
g95
ssg76
g3318
sg69
(lp3329
S':'
asbag62
(g83
g64
NtRp3330
(dp3331
g67
(dp3332
sg76
g3318
sg69
(lp3333
g62
(g63
g64
NtRp3334
(dp3335
g67
(dp3336
g75
I3
ssg76
g3330
sg69
(lp3337
S''
asbasbasbag62
(g78
g64
NtRp3338
(dp3339
g67
(dp3340
sg76
g3194
sg69
(lp3341
g62
(g83
g64
NtRp3342
(dp3343
g67
(dp3344
g87
g88
ssg76
g3338
sg69
(lp3345
g423
asbag62
(g83
g64
NtRp3346
(dp3347
g67
(dp3348
g94
g95
ssg76
g3338
sg69
(lp3349
S':'
asbag62
(g83
g64
NtRp3350
(dp3351
g67
(dp3352
sg76
g3338
sg69
(lp3353
g62
(g63
g64
NtRp3354
(dp3355
g67
(dp3356
g75
I3
ssg76
g3350
sg69
(lp3357
S''
asbasbasbasbasbasbasbasbasbasbasbag62
(g78
g64
NtRp3358
(dp3359
g67
(dp3360
sg76
g3124
sg69
(lp3361
g62
(g83
g64
NtRp3362
(dp3363
g67
(dp3364
g87
g88
ssg76
g3358
sg69
(lp3365
S'delimiters'
p3366
asbag62
(g83
g64
NtRp3367
(dp3368
g67
(dp3369
g94
g95
ssg76
g3358
sg69
(lp3370
S':'
asbag62
(g83
g64
NtRp3371
(dp3372
g67
(dp3373
sg76
g3358
sg69
(lp3374
g62
(g63
g64
NtRp3375
(dp3376
g67
(dp3377
g75
I5
ssg76
g3371
sg69
(lp3378
g62
(g71
g64
NtRp3379
(dp3380
g67
(dp3381
g75
I4
ssg76
Nsg69
(lp3382
g62
(g78
g64
NtRp3383
(dp3384
g67
(dp3385
sg76
g3379
sg69
(lp3386
g62
(g83
g64
NtRp3387
(dp3388
g67
(dp3389
sg76
g3383
sg69
(lp3390
g62
(g63
g64
NtRp3391
(dp3392
g67
(dp3393
g75
I4
ssg76
g3387
sg69
(lp3394
S'{{'
p3395
asbasbasbag62
(g78
g64
NtRp3396
(dp3397
g67
(dp3398
sg76
g3379
sg69
(lp3399
g62
(g83
g64
NtRp3400
(dp3401
g67
(dp3402
sg76
g3396
sg69
(lp3403
g62
(g63
g64
NtRp3404
(dp3405
g67
(dp3406
g75
I4
ssg76
g3400
sg69
(lp3407
S'}}'
p3408
asbasbasbasbasbasbasbag62
(g78
g64
NtRp3409
(dp3410
g67
(dp3411
sg76
g3124
sg69
(lp3412
g62
(g83
g64
NtRp3413
(dp3414
g67
(dp3415
g87
g88
ssg76
g3409
sg69
(lp3416
S'files'
p3417
asbag62
(g83
g64
NtRp3418
(dp3419
g67
(dp3420
g94
g95
ssg76
g3409
sg69
(lp3421
S':'
asbag62
(g83
g64
NtRp3422
(dp3423
g67
(dp3424
sg76
g3409
sg69
(lp3425
g62
(g63
g64
NtRp3426
(dp3427
g67
(dp3428
g75
I5
ssg76
g3422
sg69
(lp3429
g62
(g71
g64
NtRp3430
(dp3431
g67
(dp3432
g75
I4
ssg76
Nsg69
(lp3433
sbasbasbasbag62
(g78
g64
NtRp3434
(dp3435
g67
(dp3436
sg76
g3124
sg69
(lp3437
g62
(g83
g64
NtRp3438
(dp3439
g67
(dp3440
g87
g88
ssg76
g3434
sg69
(lp3441
S'flash'
p3442
asbag62
(g83
g64
NtRp3443
(dp3444
g67
(dp3445
g94
g95
ssg76
g3434
sg69
(lp3446
S':'
asbag62
(g83
g64
NtRp3447
(dp3448
g67
(dp3449
sg76
g3434
sg69
(lp3450
g62
(g63
g64
NtRp3451
(dp3452
g67
(dp3453
g75
I5
ssg76
g3447
sg69
(lp3454
S''
asbasbasbag62
(g78
g64
NtRp3455
(dp3456
g67
(dp3457
sg76
g3124
sg69
(lp3458
g62
(g83
g64
NtRp3459
(dp3460
g67
(dp3461
g87
g88
ssg76
g3455
sg69
(lp3462
S'generic_patterns'
p3463
asbag62
(g83
g64
NtRp3464
(dp3465
g67
(dp3466
g94
g95
ssg76
g3455
sg69
(lp3467
S':'
asbag62
(g83
g64
NtRp3468
(dp3469
g67
(dp3470
sg76
g3455
sg69
(lp3471
g62
(g63
g64
NtRp3472
(dp3473
g67
(dp3474
g75
I5
ssg76
g3468
sg69
(lp3475
g62
(g71
g64
NtRp3476
(dp3477
g67
(dp3478
g75
I4
ssg76
Nsg69
(lp3479
g62
(g78
g64
NtRp3480
(dp3481
g67
(dp3482
sg76
g3476
sg69
(lp3483
g62
(g83
g64
NtRp3484
(dp3485
g67
(dp3486
sg76
g3480
sg69
(lp3487
g62
(g63
g64
NtRp3488
(dp3489
g67
(dp3490
g75
I4
ssg76
g3484
sg69
(lp3491
S'*'
asbasbasbasbasbasbasbag62
(g78
g64
NtRp3492
(dp3493
g67
(dp3494
sg76
g3124
sg69
(lp3495
g62
(g83
g64
NtRp3496
(dp3497
g67
(dp3498
g87
g88
ssg76
g3492
sg69
(lp3499
S'headers'
p3500
asbag62
(g83
g64
NtRp3501
(dp3502
g67
(dp3503
g94
g95
ssg76
g3492
sg69
(lp3504
S':'
asbag62
(g83
g64
NtRp3505
(dp3506
g67
(dp3507
sg76
g3492
sg69
(lp3508
g62
(g63
g64
NtRp3509
(dp3510
g67
(dp3511
g75
I5
ssg76
g3505
sg69
(lp3512
g62
(g71
g64
NtRp3513
(dp3514
g67
(dp3515
g75
I4
ssg76
Nsg69
(lp3516
g62
(g78
g64
NtRp3517
(dp3518
g67
(dp3519
sg76
g3513
sg69
(lp3520
g62
(g83
g64
NtRp3521
(dp3522
g67
(dp3523
g87
g88
ssg76
g3517
sg69
(lp3524
S'Cache-Control'
p3525
asbag62
(g83
g64
NtRp3526
(dp3527
g67
(dp3528
g94
g95
ssg76
g3517
sg69
(lp3529
S':'
asbag62
(g83
g64
NtRp3530
(dp3531
g67
(dp3532
sg76
g3517
sg69
(lp3533
g62
(g63
g64
NtRp3534
(dp3535
g67
(dp3536
g75
I4
ssg76
g3530
sg69
(lp3537
S'no-store, no-cache, must-revalidate, post-check=0, pre-check=0'
p3538
asbasbasbag62
(g78
g64
NtRp3539
(dp3540
g67
(dp3541
sg76
g3513
sg69
(lp3542
g62
(g83
g64
NtRp3543
(dp3544
g67
(dp3545
g87
g88
ssg76
g3539
sg69
(lp3546
S'Content-Type'
p3547
asbag62
(g83
g64
NtRp3548
(dp3549
g67
(dp3550
g94
g95
ssg76
g3539
sg69
(lp3551
S':'
asbag62
(g83
g64
NtRp3552
(dp3553
g67
(dp3554
sg76
g3539
sg69
(lp3555
g62
(g63
g64
NtRp3556
(dp3557
g67
(dp3558
g75
I4
ssg76
g3552
sg69
(lp3559
S'text/html; charset=utf-8'
p3560
asbasbasbag62
(g78
g64
NtRp3561
(dp3562
g67
(dp3563
sg76
g3513
sg69
(lp3564
g62
(g83
g64
NtRp3565
(dp3566
g67
(dp3567
g87
g88
ssg76
g3561
sg69
(lp3568
S'Expires'
p3569
asbag62
(g83
g64
NtRp3570
(dp3571
g67
(dp3572
g94
g95
ssg76
g3561
sg69
(lp3573
S':'
asbag62
(g83
g64
NtRp3574
(dp3575
g67
(dp3576
sg76
g3561
sg69
(lp3577
g62
(g63
g64
NtRp3578
(dp3579
g67
(dp3580
g75
I4
ssg76
g3574
sg69
(lp3581
S'Mon, 19 Mar 2012 00:37:35 GMT'
p3582
asbasbasbag62
(g78
g64
NtRp3583
(dp3584
g67
(dp3585
sg76
g3513
sg69
(lp3586
g62
(g83
g64
NtRp3587
(dp3588
g67
(dp3589
g87
g88
ssg76
g3583
sg69
(lp3590
S'Pragma'
p3591
asbag62
(g83
g64
NtRp3592
(dp3593
g67
(dp3594
g94
g95
ssg76
g3583
sg69
(lp3595
S':'
asbag62
(g83
g64
NtRp3596
(dp3597
g67
(dp3598
sg76
g3583
sg69
(lp3599
g62
(g63
g64
NtRp3600
(dp3601
g67
(dp3602
g75
I4
ssg76
g3596
sg69
(lp3603
S'no-cache'
p3604
asbasbasbag62
(g78
g64
NtRp3605
(dp3606
g67
(dp3607
sg76
g3513
sg69
(lp3608
g62
(g83
g64
NtRp3609
(dp3610
g67
(dp3611
g87
g88
ssg76
g3605
sg69
(lp3612
S'X-Powered-By'
p3613
asbag62
(g83
g64
NtRp3614
(dp3615
g67
(dp3616
g94
g95
ssg76
g3605
sg69
(lp3617
S':'
asbag62
(g83
g64
NtRp3618
(dp3619
g67
(dp3620
sg76
g3605
sg69
(lp3621
g62
(g63
g64
NtRp3622
(dp3623
g67
(dp3624
g75
I4
ssg76
g3618
sg69
(lp3625
S'web2py'
p3626
asbasbasbasbasbasbasbag62
(g78
g64
NtRp3627
(dp3628
g67
(dp3629
sg76
g3124
sg69
(lp3630
g62
(g83
g64
NtRp3631
(dp3632
g67
(dp3633
g87
g88
ssg76
g3627
sg69
(lp3634
S'menu'
p3635
asbag62
(g83
g64
NtRp3636
(dp3637
g67
(dp3638
g94
g95
ssg76
g3627
sg69
(lp3639
S':'
asbag62
(g83
g64
NtRp3640
(dp3641
g67
(dp3642
sg76
g3627
sg69
(lp3643
g62
(g63
g64
NtRp3644
(dp3645
g67
(dp3646
g75
I5
ssg76
g3640
sg69
(lp3647
g62
(g71
g64
NtRp3648
(dp3649
g67
(dp3650
g75
I4
ssg76
Nsg69
(lp3651
g62
(g78
g64
NtRp3652
(dp3653
g67
(dp3654
sg76
g3648
sg69
(lp3655
g62
(g83
g64
NtRp3656
(dp3657
g67
(dp3658
sg76
g3652
sg69
(lp3659
g62
(g63
g64
NtRp3660
(dp3661
g67
(dp3662
g75
I4
ssg76
g3656
sg69
(lp3663
g62
(g71
g64
NtRp3664
(dp3665
g67
(dp3666
g75
I3
ssg76
Nsg69
(lp3667
g62
(g78
g64
NtRp3668
(dp3669
g67
(dp3670
sg76
g3664
sg69
(lp3671
g62
(g83
g64
NtRp3672
(dp3673
g67
(dp3674
sg76
g3668
sg69
(lp3675
g62
(g63
g64
NtRp3676
(dp3677
g67
(dp3678
g75
I3
ssg76
g3672
sg69
(lp3679
cgluon.languages
lazyT_unpickle
p3680
(S't\x05\x00\x00\x00Index'
tRp3681
asbasbasbag62
(g78
g64
NtRp3682
(dp3683
g67
(dp3684
sg76
g3664
sg69
(lp3685
g62
(g83
g64
NtRp3686
(dp3687
g67
(dp3688
sg76
g3682
sg69
(lp3689
g62
(g63
g64
NtRp3690
(dp3691
g67
(dp3692
g75
I3
ssg76
g3686
sg69
(lp3693
g1683
asbasbasbag62
(g78
g64
NtRp3694
(dp3695
g67
(dp3696
sg76
g3664
sg69
(lp3697
g62
(g83
g64
NtRp3698
(dp3699
g67
(dp3700
sg76
g3694
sg69
(lp3701
g62
(g63
g64
NtRp3702
(dp3703
g67
(dp3704
g75
I3
ssg76
g3698
sg69
(lp3705
S'/hiremeintech/default/index'
p3706
asbasbasbag62
(g78
g64
NtRp3707
(dp3708
g67
(dp3709
sg76
g3664
sg69
(lp3710
g62
(g83
g64
NtRp3711
(dp3712
g67
(dp3713
sg76
g3707
sg69
(lp3714
g62
(g63
g64
NtRp3715
(dp3716
g67
(dp3717
g75
I3
ssg76
g3711
sg69
(lp3718
g62
(g71
g64
NtRp3719
(dp3720
g67
(dp3721
g75
I2
ssg76
Nsg69
(lp3722
sbasbasbasbasbasbasbasbasbasbasbasbag62
(g78
g64
NtRp3723
(dp3724
g67
(dp3725
sg76
g3124
sg69
(lp3726
g62
(g83
g64
NtRp3727
(dp3728
g67
(dp3729
g87
g88
ssg76
g3723
sg69
(lp3730
S'meta'
p3731
asbag62
(g83
g64
NtRp3732
(dp3733
g67
(dp3734
g94
g95
ssg76
g3723
sg69
(lp3735
S':'
asbag62
(g83
g64
NtRp3736
(dp3737
g67
(dp3738
sg76
g3723
sg69
(lp3739
g62
(g63
g64
NtRp3740
(dp3741
g67
(dp3742
g75
I5
ssg76
g3736
sg69
(lp3743
g62
(g71
g64
NtRp3744
(dp3745
g67
(dp3746
g75
I4
ssg76
Nsg69
(lp3747
g62
(g78
g64
NtRp3748
(dp3749
g67
(dp3750
sg76
g3744
sg69
(lp3751
g62
(g83
g64
NtRp3752
(dp3753
g67
(dp3754
g87
g88
ssg76
g3748
sg69
(lp3755
S'author'
p3756
asbag62
(g83
g64
NtRp3757
(dp3758
g67
(dp3759
g94
g95
ssg76
g3748
sg69
(lp3760
S':'
asbag62
(g83
g64
NtRp3761
(dp3762
g67
(dp3763
sg76
g3748
sg69
(lp3764
g62
(g63
g64
NtRp3765
(dp3766
g67
(dp3767
g75
I4
ssg76
g3761
sg69
(lp3768
S'you <do.robert@gmail.com>'
p3769
asbasbasbag62
(g78
g64
NtRp3770
(dp3771
g67
(dp3772
sg76
g3744
sg69
(lp3773
g62
(g83
g64
NtRp3774
(dp3775
g67
(dp3776
g87
g88
ssg76
g3770
sg69
(lp3777
S'description'
p3778
asbag62
(g83
g64
NtRp3779
(dp3780
g67
(dp3781
g94
g95
ssg76
g3770
sg69
(lp3782
S':'
asbag62
(g83
g64
NtRp3783
(dp3784
g67
(dp3785
sg76
g3770
sg69
(lp3786
g62
(g63
g64
NtRp3787
(dp3788
g67
(dp3789
g75
I4
ssg76
g3783
sg69
(lp3790
S''
asbasbasbag62
(g78
g64
NtRp3791
(dp3792
g67
(dp3793
sg76
g3744
sg69
(lp3794
g62
(g83
g64
NtRp3795
(dp3796
g67
(dp3797
g87
g88
ssg76
g3791
sg69
(lp3798
S'keywords'
p3799
asbag62
(g83
g64
NtRp3800
(dp3801
g67
(dp3802
g94
g95
ssg76
g3791
sg69
(lp3803
S':'
asbag62
(g83
g64
NtRp3804
(dp3805
g67
(dp3806
sg76
g3791
sg69
(lp3807
g62
(g63
g64
NtRp3808
(dp3809
g67
(dp3810
g75
I4
ssg76
g3804
sg69
(lp3811
S''
asbasbasbasbasbasbasbag62
(g78
g64
NtRp3812
(dp3813
g67
(dp3814
sg76
g3124
sg69
(lp3815
g62
(g83
g64
NtRp3816
(dp3817
g67
(dp3818
g87
g88
ssg76
g3812
sg69
(lp3819
S'postprocessing'
p3820
asbag62
(g83
g64
NtRp3821
(dp3822
g67
(dp3823
g94
g95
ssg76
g3812
sg69
(lp3824
S':'
asbag62
(g83
g64
NtRp3825
(dp3826
g67
(dp3827
sg76
g3812
sg69
(lp3828
g62
(g63
g64
NtRp3829
(dp3830
g67
(dp3831
g75
I5
ssg76
g3825
sg69
(lp3832
g62
(g71
g64
NtRp3833
(dp3834
g67
(dp3835
g75
I4
ssg76
Nsg69
(lp3836
sbasbasbasbag62
(g78
g64
NtRp3837
(dp3838
g67
(dp3839
sg76
g3124
sg69
(lp3840
g62
(g83
g64
NtRp3841
(dp3842
g67
(dp3843
g87
g88
ssg76
g3837
sg69
(lp3844
S'session_file'
p3845
asbag62
(g83
g64
NtRp3846
(dp3847
g67
(dp3848
g94
g95
ssg76
g3837
sg69
(lp3849
S':'
asbag62
(g83
g64
NtRp3850
(dp3851
g67
(dp3852
sg76
g3837
sg69
(lp3853
g62
(g63
g64
NtRp3854
(dp3855
g67
(dp3856
g75
I5
ssg76
g3850
sg69
(lp3857
S"<open file '/Users/robertdo/hiremeintech/applications/hiremeintech/sessions/127.0.0.1-3b8691fb-34ea-4163-ba1b-d727e11330f7', mode 'rb+' at 0x10cbe9390>"
p3858
asbasbasbag62
(g78
g64
NtRp3859
(dp3860
g67
(dp3861
sg76
g3124
sg69
(lp3862
g62
(g83
g64
NtRp3863
(dp3864
g67
(dp3865
g87
g88
ssg76
g3859
sg69
(lp3866
S'session_filename'
p3867
asbag62
(g83
g64
NtRp3868
(dp3869
g67
(dp3870
g94
g95
ssg76
g3859
sg69
(lp3871
S':'
asbag62
(g83
g64
NtRp3872
(dp3873
g67
(dp3874
sg76
g3859
sg69
(lp3875
g62
(g63
g64
NtRp3876
(dp3877
g67
(dp3878
g75
I5
ssg76
g3872
sg69
(lp3879
S'/Users/robertdo/hiremeintech/applications/hiremeintech/sessions/127.0.0.1-3b8691fb-34ea-4163-ba1b-d727e11330f7'
p3880
asbasbasbag62
(g78
g64
NtRp3881
(dp3882
g67
(dp3883
sg76
g3124
sg69
(lp3884
g62
(g83
g64
NtRp3885
(dp3886
g67
(dp3887
g87
g88
ssg76
g3881
sg69
(lp3888
S'session_id'
p3889
asbag62
(g83
g64
NtRp3890
(dp3891
g67
(dp3892
g94
g95
ssg76
g3881
sg69
(lp3893
S':'
asbag62
(g83
g64
NtRp3894
(dp3895
g67
(dp3896
sg76
g3881
sg69
(lp3897
g62
(g63
g64
NtRp3898
(dp3899
g67
(dp3900
g75
I5
ssg76
g3894
sg69
(lp3901
S'127.0.0.1-3b8691fb-34ea-4163-ba1b-d727e11330f7'
p3902
asbasbasbag62
(g78
g64
NtRp3903
(dp3904
g67
(dp3905
sg76
g3124
sg69
(lp3906
g62
(g83
g64
NtRp3907
(dp3908
g67
(dp3909
g87
g88
ssg76
g3903
sg69
(lp3910
S'session_id_name'
p3911
asbag62
(g83
g64
NtRp3912
(dp3913
g67
(dp3914
g94
g95
ssg76
g3903
sg69
(lp3915
S':'
asbag62
(g83
g64
NtRp3916
(dp3917
g67
(dp3918
sg76
g3903
sg69
(lp3919
g62
(g63
g64
NtRp3920
(dp3921
g67
(dp3922
g75
I5
ssg76
g3916
sg69
(lp3923
g3181
asbasbasbag62
(g78
g64
NtRp3924
(dp3925
g67
(dp3926
sg76
g3124
sg69
(lp3927
g62
(g83
g64
NtRp3928
(dp3929
g67
(dp3930
g87
g88
ssg76
g3924
sg69
(lp3931
S'session_locked'
p3932
asbag62
(g83
g64
NtRp3933
(dp3934
g67
(dp3935
g94
g95
ssg76
g3924
sg69
(lp3936
S':'
asbag62
(g83
g64
NtRp3937
(dp3938
g67
(dp3939
sg76
g3924
sg69
(lp3940
g62
(g63
g64
NtRp3941
(dp3942
g67
(dp3943
g75
I5
ssg76
g3937
sg69
(lp3944
g1683
asbasbasbag62
(g78
g64
NtRp3945
(dp3946
g67
(dp3947
sg76
g3124
sg69
(lp3948
g62
(g83
g64
NtRp3949
(dp3950
g67
(dp3951
g87
g88
ssg76
g3945
sg69
(lp3952
S'session_new'
p3953
asbag62
(g83
g64
NtRp3954
(dp3955
g67
(dp3956
g94
g95
ssg76
g3945
sg69
(lp3957
S':'
asbag62
(g83
g64
NtRp3958
(dp3959
g67
(dp3960
sg76
g3945
sg69
(lp3961
g62
(g63
g64
NtRp3962
(dp3963
g67
(dp3964
g75
I5
ssg76
g3958
sg69
(lp3965
g105
asbasbasbag62
(g78
g64
NtRp3966
(dp3967
g67
(dp3968
sg76
g3124
sg69
(lp3969
g62
(g83
g64
NtRp3970
(dp3971
g67
(dp3972
g87
g88
ssg76
g3966
sg69
(lp3973
S'status'
p3974
asbag62
(g83
g64
NtRp3975
(dp3976
g67
(dp3977
g94
g95
ssg76
g3966
sg69
(lp3978
S':'
asbag62
(g83
g64
NtRp3979
(dp3980
g67
(dp3981
sg76
g3966
sg69
(lp3982
g62
(g63
g64
NtRp3983
(dp3984
g67
(dp3985
g75
I5
ssg76
g3979
sg69
(lp3986
S'200'
p3987
asbasbasbag62
(g78
g64
NtRp3988
(dp3989
g67
(dp3990
sg76
g3124
sg69
(lp3991
g62
(g83
g64
NtRp3992
(dp3993
g67
(dp3994
g87
g88
ssg76
g3988
sg69
(lp3995
S'subtitle'
p3996
asbag62
(g83
g64
NtRp3997
(dp3998
g67
(dp3999
g94
g95
ssg76
g3988
sg69
(lp4000
S':'
asbag62
(g83
g64
NtRp4001
(dp4002
g67
(dp4003
sg76
g3988
sg69
(lp4004
g62
(g63
g64
NtRp4005
(dp4006
g67
(dp4007
g75
I5
ssg76
g4001
sg69
(lp4008
S'powered by web2py'
p4009
asbasbasbag62
(g78
g64
NtRp4010
(dp4011
g67
(dp4012
sg76
g3124
sg69
(lp4013
g62
(g83
g64
NtRp4014
(dp4015
g67
(dp4016
g87
g88
ssg76
g4010
sg69
(lp4017
S'title'
p4018
asbag62
(g83
g64
NtRp4019
(dp4020
g67
(dp4021
g94
g95
ssg76
g4010
sg69
(lp4022
S':'
asbag62
(g83
g64
NtRp4023
(dp4024
g67
(dp4025
sg76
g4010
sg69
(lp4026
g62
(g63
g64
NtRp4027
(dp4028
g67
(dp4029
g75
I5
ssg76
g4023
sg69
(lp4030
S'My New App'
p4031
asbasbasbag62
(g78
g64
NtRp4032
(dp4033
g67
(dp4034
sg76
g3124
sg69
(lp4035
g62
(g83
g64
NtRp4036
(dp4037
g67
(dp4038
g87
g88
ssg76
g4032
sg69
(lp4039
g2347
asbag62
(g83
g64
NtRp4040
(dp4041
g67
(dp4042
g94
g95
ssg76
g4032
sg69
(lp4043
S':'
asbag62
(g83
g64
NtRp4044
(dp4045
g67
(dp4046
sg76
g4032
sg69
(lp4047
g62
(g63
g64
NtRp4048
(dp4049
g67
(dp4050
g75
I5
ssg76
g4044
sg69
(lp4051
g2360
asbasbasbag62
(g78
g64
NtRp4052
(dp4053
g67
(dp4054
sg76
g3124
sg69
(lp4055
g62
(g83
g64
NtRp4056
(dp4057
g67
(dp4058
g87
g88
ssg76
g4052
sg69
(lp4059
S'view'
p4060
asbag62
(g83
g64
NtRp4061
(dp4062
g67
(dp4063
g94
g95
ssg76
g4052
sg69
(lp4064
S':'
asbag62
(g83
g64
NtRp4065
(dp4066
g67
(dp4067
sg76
g4052
sg69
(lp4068
g62
(g63
g64
NtRp4069
(dp4070
g67
(dp4071
g75
I5
ssg76
g4065
sg69
(lp4072
S'default/index.html'
p4073
asbasbasbasbasbsS'locals'
p4074
(dp4075
ssS'traceback'
p4076
S'Traceback (most recent call last):\n  File "/Users/robertdo/hiremeintech/gluon/restricted.py", line 205, in restricted\n    exec ccode in environment\n  File "/Users/robertdo/hiremeintech/applications/hiremeintech/controllers/default.py", line 23, in <module>\n  File "/Users/robertdo/hiremeintech/gluon/globals.py", line 173, in <lambda>\n    self._caller = lambda f: f()\n  File "/Users/robertdo/hiremeintech/applications/hiremeintech/controllers/default.py", line 8, in index\n    if open(\'data.csv\', \'r\'):\nIOError: [Errno 2] No such file or directory: \'data.csv\'\n'
p4077
s.