(dp1
S'output'
p2
S"<type 'exceptions.IOError'> [Errno 2] No such file or directory: 'data.csv'"
p3
sS'layer'
p4
S'/Users/robertdo/hiremeintech/applications/hiremeintech/models/db.py'
p5
sS'code'
p6
S"# -*- coding: utf-8 -*-\n\n#########################################################################\n## This scaffolding model makes your app work on Google App Engine too\n## File is released under public domain and you can use without limitations\n#########################################################################\n\n## if SSL/HTTPS is properly configured and you want all HTTP requests to\n## be redirected to HTTPS, uncomment the line below:\n# request.requires_https()\n\nif not request.env.web2py_runtime_gae:\n    ## if NOT running on Google App Engine use SQLite or other DB\n    db = DAL('sqlite://storage.sqlite')\nelse:\n    ## connect to Google BigTable (optional 'google:datastore://namespace')\n    db = DAL('google:datastore')\n    ## store sessions and tickets there\n    session.connect(request, response, db = db)\n    ## or store session in Memcache, Redis, etc.\n    ## from gluon.contrib.memdb import MEMDB\n    ## from google.appengine.api.memcache import Client\n    ## session.connect(request, response, db = MEMDB(Client()))\n\n## by default give a view/generic.extension to all actions from localhost\n## none otherwise. a pattern can be 'controller/function.extension'\nresponse.generic_patterns = ['*'] if request.is_local else []\n## (optional) optimize handling of static files\n# response.optimize_css = 'concat,minify,inline'\n# response.optimize_js = 'concat,minify,inline'\n\n#########################################################################\n## Here is sample code if you need for\n## - email capabilities\n## - authentication (registration, login, logout, ... )\n## - authorization (role based authorization)\n## - services (xml, csv, json, xmlrpc, jsonrpc, amf, rss)\n## - old style crud actions\n## (more options discussed in gluon/tools.py)\n#########################################################################\n\nfrom gluon.tools import Auth, Crud, Service, PluginManager, prettydate\nauth = Auth(db, hmac_key=Auth.get_or_create_key())\ncrud, service, plugins = Crud(db), Service(), PluginManager()\n\n## create all tables needed by auth if not custom tables\n\n########################################\ndb.define_table('auth_user',\n    Field('username', type='string',\n          label=T('Username')),\n    Field('first_name', type='string',\n          label=T('First Name')),\n    Field('last_name', type='string',\n          label=T('Last Name')),\n    Field('email', type='string',\n          label=T('Email')),\n    Field('password', type='password',\n          readable=False,\n          label=T('Password')),\n    Field('created_on','datetime',default=request.now,\n          label=T('Created On'),writable=False,readable=False),\n    Field('modified_on','datetime',default=request.now,\n          label=T('Modified On'),writable=False,readable=False,\n          update=request.now),\n    Field('registration_key',default='',\n          writable=False,readable=False),\n    Field('reset_password_key',default='',\n          writable=False,readable=False),\n    Field('registration_id',default='',\n          writable=False,readable=False),\n    format='%(username)s',\n    migrate=settings.migrate)\n\n\ndb.auth_user.first_name.requires = IS_NOT_EMPTY(error_message=auth.messages.is_empty)\ndb.auth_user.last_name.requires = IS_NOT_EMPTY(error_message=auth.messages.is_empty)\ndb.auth_user.password.requires = CRYPT(key=auth.settings.hmac_key)\ndb.auth_user.username.requires = IS_NOT_IN_DB(db, db.auth_user.username)\ndb.auth_user.email.requires = (IS_EMAIL(error_message=auth.messages.invalid_email),\n                               IS_NOT_IN_DB(db, db.auth_user.email))\nauth.define_tables(migrate = settings.migrate)\n\n## configure email\nmail=auth.settings.mailer\nmail.settings.server = 'logging' or 'smtp.gmail.com:587'\nmail.settings.sender = 'you@gmail.com'\nmail.settings.login = 'username:password'\n\n## configure auth policy\nauth.settings.registration_requires_verification = False\nauth.settings.registration_requires_approval = False\nauth.settings.reset_password_requires_verification = True\n\n## if you need to use OpenID, Facebook, MySpace, Twitter, Linkedin, etc.\n## register with janrain.com, write your domain:api_key in private/janrain.key\nfrom gluon.contrib.login_methods.rpx_account import use_janrain\nuse_janrain(auth,filename='private/janrain.key')\n\n#########################################################################\n## Define your tables below (or better in another model file) for example\n##\n## >>> db.define_table('mytable',Field('myfield','string'))\n##\n## Fields can be 'string','text','password','integer','double','boolean'\n##       'date','time','datetime','blob','upload', 'reference TABLENAME'\n## There is an implicit 'id integer autoincrement' field\n## Consult manual for more options, validators, etc.\n##\n## More API examples for controllers:\n##\n## >>> db.mytable.insert(myfield='value')\n## >>> rows=db(db.mytable.myfield=='value').select(db.mytable.ALL)\n## >>> for row in rows: print row.id, row.myfield\n#########################################################################\n\n\nmail.settings.server = settings.email_server\nmail.settings.sender = settings.email_sender\nmail.settings.login = settings.email_login\n\ndb.define_table('jobs',\n    Field('title', type='string'),\n    Field('category', type='string'),\n    Field('subcategory', type='string'),\n    Field('location', type='string'),\n    Field('content', type='string'))\n\ndb.jobs.import_from_csv_file(open('data.csv', 'r'))\n\n"
p7
sS'snapshot'
p8
(dp9
S'exception'
p10
(dp11
S'__getslice__'
p12
S"<method-wrapper '__getslice__' of exceptions.IOError object>"
p13
sS'__str__'
p14
S"<method-wrapper '__str__' of exceptions.IOError object>"
p15
sS'__reduce__'
p16
S'<built-in method __reduce__ of exceptions.IOError object>'
p17
sS'__dict__'
p18
S'{}'
p19
sS'__sizeof__'
p20
S'<built-in method __sizeof__ of exceptions.IOError object>'
p21
sS'__init__'
p22
S"<method-wrapper '__init__' of exceptions.IOError object>"
p23
sS'__setattr__'
p24
S"<method-wrapper '__setattr__' of exceptions.IOError object>"
p25
sS'__reduce_ex__'
p26
S'<built-in method __reduce_ex__ of exceptions.IOError object>'
p27
sS'__new__'
p28
S'<built-in method __new__ of type object>'
p29
sS'errno'
p30
S'2'
sS'__format__'
p31
S'<built-in method __format__ of exceptions.IOError object>'
p32
sS'__class__'
p33
S"<type 'exceptions.IOError'>"
p34
sS'filename'
p35
S"'data.csv'"
p36
sS'__doc__'
p37
S"'I/O operation failed.'"
p38
sS'__getitem__'
p39
S"<method-wrapper '__getitem__' of exceptions.IOError object>"
p40
sS'__setstate__'
p41
S'<built-in method __setstate__ of exceptions.IOError object>'
p42
sS'__getattribute__'
p43
S"<method-wrapper '__getattribute__' of exceptions.IOError object>"
p44
sS'args'
p45
S"(2, 'No such file or directory')"
p46
sS'__subclasshook__'
p47
S'<built-in method __subclasshook__ of type object>'
p48
sS'__unicode__'
p49
S'<built-in method __unicode__ of exceptions.IOError object>'
p50
sS'strerror'
p51
S"'No such file or directory'"
p52
sS'__delattr__'
p53
S"<method-wrapper '__delattr__' of exceptions.IOError object>"
p54
sS'__repr__'
p55
S"<method-wrapper '__repr__' of exceptions.IOError object>"
p56
sS'__hash__'
p57
S"<method-wrapper '__hash__' of exceptions.IOError object>"
p58
ssS'evalue'
p59
S"[Errno 2] No such file or directory: 'data.csv'"
p60
sS'request'
p61
ccopy_reg
_reconstructor
p62
(cgluon.html
BEAUTIFY
p63
c__builtin__
object
p64
NtRp65
(dp66
S'attributes'
p67
(dp68
sS'components'
p69
(lp70
g62
(cgluon.html
TABLE
p71
g64
NtRp72
(dp73
g67
(dp74
S'level'
p75
I5
ssS'parent'
p76
Nsg69
(lp77
g62
(cgluon.html
TR
p78
g64
NtRp79
(dp80
g67
(dp81
sg76
g72
sg69
(lp82
g62
(cgluon.html
TD
p83
g64
NtRp84
(dp85
g67
(dp86
S'_style'
p87
S'font-weight:bold;vertical-align:top'
p88
ssg76
g79
sg69
(lp89
S'ajax'
p90
asbag62
(g83
g64
NtRp91
(dp92
g67
(dp93
S'_valign'
p94
S'top'
p95
ssg76
g79
sg69
(lp96
S':'
asbag62
(g83
g64
NtRp97
(dp98
g67
(dp99
sg76
g79
sg69
(lp100
g62
(g63
g64
NtRp101
(dp102
g67
(dp103
g75
I5
ssg76
g97
sg69
(lp104
S'False'
p105
asbasbasbag62
(g78
g64
NtRp106
(dp107
g67
(dp108
sg76
g72
sg69
(lp109
g62
(g83
g64
NtRp110
(dp111
g67
(dp112
g87
g88
ssg76
g106
sg69
(lp113
S'application'
p114
asbag62
(g83
g64
NtRp115
(dp116
g67
(dp117
g94
g95
ssg76
g106
sg69
(lp118
S':'
asbag62
(g83
g64
NtRp119
(dp120
g67
(dp121
sg76
g106
sg69
(lp122
g62
(g63
g64
NtRp123
(dp124
g67
(dp125
g75
I5
ssg76
g119
sg69
(lp126
S'hiremeintech'
p127
asbasbasbag62
(g78
g64
NtRp128
(dp129
g67
(dp130
sg76
g72
sg69
(lp131
g62
(g83
g64
NtRp132
(dp133
g67
(dp134
g87
g88
ssg76
g128
sg69
(lp135
g45
asbag62
(g83
g64
NtRp136
(dp137
g67
(dp138
g94
g95
ssg76
g128
sg69
(lp139
S':'
asbag62
(g83
g64
NtRp140
(dp141
g67
(dp142
sg76
g128
sg69
(lp143
g62
(g63
g64
NtRp144
(dp145
g67
(dp146
g75
I5
ssg76
g140
sg69
(lp147
g62
(g71
g64
NtRp148
(dp149
g67
(dp150
g75
I4
ssg76
Nsg69
(lp151
sbasbasbasbag62
(g78
g64
NtRp152
(dp153
g67
(dp154
sg76
g72
sg69
(lp155
g62
(g83
g64
NtRp156
(dp157
g67
(dp158
g87
g88
ssg76
g152
sg69
(lp159
S'body'
p160
asbag62
(g83
g64
NtRp161
(dp162
g67
(dp163
g94
g95
ssg76
g152
sg69
(lp164
S':'
asbag62
(g83
g64
NtRp165
(dp166
g67
(dp167
sg76
g152
sg69
(lp168
g62
(g63
g64
NtRp169
(dp170
g67
(dp171
g75
I5
ssg76
g165
sg69
(lp172
S'<cStringIO.StringO object at 0x10e45bab0>'
p173
asbasbasbag62
(g78
g64
NtRp174
(dp175
g67
(dp176
sg76
g72
sg69
(lp177
g62
(g83
g64
NtRp178
(dp179
g67
(dp180
g87
g88
ssg76
g174
sg69
(lp181
S'client'
p182
asbag62
(g83
g64
NtRp183
(dp184
g67
(dp185
g94
g95
ssg76
g174
sg69
(lp186
S':'
asbag62
(g83
g64
NtRp187
(dp188
g67
(dp189
sg76
g174
sg69
(lp190
g62
(g63
g64
NtRp191
(dp192
g67
(dp193
g75
I5
ssg76
g187
sg69
(lp194
S'127.0.0.1'
p195
asbasbasbag62
(g78
g64
NtRp196
(dp197
g67
(dp198
sg76
g72
sg69
(lp199
g62
(g83
g64
NtRp200
(dp201
g67
(dp202
g87
g88
ssg76
g196
sg69
(lp203
S'controller'
p204
asbag62
(g83
g64
NtRp205
(dp206
g67
(dp207
g94
g95
ssg76
g196
sg69
(lp208
S':'
asbag62
(g83
g64
NtRp209
(dp210
g67
(dp211
sg76
g196
sg69
(lp212
g62
(g63
g64
NtRp213
(dp214
g67
(dp215
g75
I5
ssg76
g209
sg69
(lp216
S'default'
p217
asbasbasbag62
(g78
g64
NtRp218
(dp219
g67
(dp220
sg76
g72
sg69
(lp221
g62
(g83
g64
NtRp222
(dp223
g67
(dp224
g87
g88
ssg76
g218
sg69
(lp225
S'cookies'
p226
asbag62
(g83
g64
NtRp227
(dp228
g67
(dp229
g94
g95
ssg76
g218
sg69
(lp230
S':'
asbag62
(g83
g64
NtRp231
(dp232
g67
(dp233
sg76
g218
sg69
(lp234
g62
(g63
g64
NtRp235
(dp236
g67
(dp237
g75
I5
ssg76
g231
sg69
(lp238
g62
(g71
g64
NtRp239
(dp240
g67
(dp241
g75
I4
ssg76
Nsg69
(lp242
g62
(g78
g64
NtRp243
(dp244
g67
(dp245
sg76
g239
sg69
(lp246
g62
(g83
g64
NtRp247
(dp248
g67
(dp249
g87
g88
ssg76
g243
sg69
(lp250
S'session_id_admin'
p251
asbag62
(g83
g64
NtRp252
(dp253
g67
(dp254
g94
g95
ssg76
g243
sg69
(lp255
S':'
asbag62
(g83
g64
NtRp256
(dp257
g67
(dp258
sg76
g243
sg69
(lp259
g62
(g63
g64
NtRp260
(dp261
g67
(dp262
g75
I4
ssg76
g256
sg69
(lp263
g62
(g71
g64
NtRp264
(dp265
g67
(dp266
g75
I3
ssg76
Nsg69
(lp267
g62
(g78
g64
NtRp268
(dp269
g67
(dp270
sg76
g264
sg69
(lp271
g62
(g83
g64
NtRp272
(dp273
g67
(dp274
g87
g88
ssg76
g268
sg69
(lp275
S'comment'
p276
asbag62
(g83
g64
NtRp277
(dp278
g67
(dp279
g94
g95
ssg76
g268
sg69
(lp280
S':'
asbag62
(g83
g64
NtRp281
(dp282
g67
(dp283
sg76
g268
sg69
(lp284
g62
(g63
g64
NtRp285
(dp286
g67
(dp287
g75
I3
ssg76
g281
sg69
(lp288
S''
asbasbasbag62
(g78
g64
NtRp289
(dp290
g67
(dp291
sg76
g264
sg69
(lp292
g62
(g83
g64
NtRp293
(dp294
g67
(dp295
g87
g88
ssg76
g289
sg69
(lp296
S'domain'
p297
asbag62
(g83
g64
NtRp298
(dp299
g67
(dp300
g94
g95
ssg76
g289
sg69
(lp301
S':'
asbag62
(g83
g64
NtRp302
(dp303
g67
(dp304
sg76
g289
sg69
(lp305
g62
(g63
g64
NtRp306
(dp307
g67
(dp308
g75
I3
ssg76
g302
sg69
(lp309
S''
asbasbasbag62
(g78
g64
NtRp310
(dp311
g67
(dp312
sg76
g264
sg69
(lp313
g62
(g83
g64
NtRp314
(dp315
g67
(dp316
g87
g88
ssg76
g310
sg69
(lp317
S'expires'
p318
asbag62
(g83
g64
NtRp319
(dp320
g67
(dp321
g94
g95
ssg76
g310
sg69
(lp322
S':'
asbag62
(g83
g64
NtRp323
(dp324
g67
(dp325
sg76
g310
sg69
(lp326
g62
(g63
g64
NtRp327
(dp328
g67
(dp329
g75
I3
ssg76
g323
sg69
(lp330
S''
asbasbasbag62
(g78
g64
NtRp331
(dp332
g67
(dp333
sg76
g264
sg69
(lp334
g62
(g83
g64
NtRp335
(dp336
g67
(dp337
g87
g88
ssg76
g331
sg69
(lp338
S'httponly'
p339
asbag62
(g83
g64
NtRp340
(dp341
g67
(dp342
g94
g95
ssg76
g331
sg69
(lp343
S':'
asbag62
(g83
g64
NtRp344
(dp345
g67
(dp346
sg76
g331
sg69
(lp347
g62
(g63
g64
NtRp348
(dp349
g67
(dp350
g75
I3
ssg76
g344
sg69
(lp351
S''
asbasbasbag62
(g78
g64
NtRp352
(dp353
g67
(dp354
sg76
g264
sg69
(lp355
g62
(g83
g64
NtRp356
(dp357
g67
(dp358
g87
g88
ssg76
g352
sg69
(lp359
S'max-age'
p360
asbag62
(g83
g64
NtRp361
(dp362
g67
(dp363
g94
g95
ssg76
g352
sg69
(lp364
S':'
asbag62
(g83
g64
NtRp365
(dp366
g67
(dp367
sg76
g352
sg69
(lp368
g62
(g63
g64
NtRp369
(dp370
g67
(dp371
g75
I3
ssg76
g365
sg69
(lp372
S''
asbasbasbag62
(g78
g64
NtRp373
(dp374
g67
(dp375
sg76
g264
sg69
(lp376
g62
(g83
g64
NtRp377
(dp378
g67
(dp379
g87
g88
ssg76
g373
sg69
(lp380
S'path'
p381
asbag62
(g83
g64
NtRp382
(dp383
g67
(dp384
g94
g95
ssg76
g373
sg69
(lp385
S':'
asbag62
(g83
g64
NtRp386
(dp387
g67
(dp388
sg76
g373
sg69
(lp389
g62
(g63
g64
NtRp390
(dp391
g67
(dp392
g75
I3
ssg76
g386
sg69
(lp393
S''
asbasbasbag62
(g78
g64
NtRp394
(dp395
g67
(dp396
sg76
g264
sg69
(lp397
g62
(g83
g64
NtRp398
(dp399
g67
(dp400
g87
g88
ssg76
g394
sg69
(lp401
S'secure'
p402
asbag62
(g83
g64
NtRp403
(dp404
g67
(dp405
g94
g95
ssg76
g394
sg69
(lp406
S':'
asbag62
(g83
g64
NtRp407
(dp408
g67
(dp409
sg76
g394
sg69
(lp410
g62
(g63
g64
NtRp411
(dp412
g67
(dp413
g75
I3
ssg76
g407
sg69
(lp414
S''
asbasbasbag62
(g78
g64
NtRp415
(dp416
g67
(dp417
sg76
g264
sg69
(lp418
g62
(g83
g64
NtRp419
(dp420
g67
(dp421
g87
g88
ssg76
g415
sg69
(lp422
S'version'
p423
asbag62
(g83
g64
NtRp424
(dp425
g67
(dp426
g94
g95
ssg76
g415
sg69
(lp427
S':'
asbag62
(g83
g64
NtRp428
(dp429
g67
(dp430
sg76
g415
sg69
(lp431
g62
(g63
g64
NtRp432
(dp433
g67
(dp434
g75
I3
ssg76
g428
sg69
(lp435
S''
asbasbasbasbasbasbasbag62
(g78
g64
NtRp436
(dp437
g67
(dp438
sg76
g239
sg69
(lp439
g62
(g83
g64
NtRp440
(dp441
g67
(dp442
g87
g88
ssg76
g436
sg69
(lp443
S'session_id_hiremeintech'
p444
asbag62
(g83
g64
NtRp445
(dp446
g67
(dp447
g94
g95
ssg76
g436
sg69
(lp448
S':'
asbag62
(g83
g64
NtRp449
(dp450
g67
(dp451
sg76
g436
sg69
(lp452
g62
(g63
g64
NtRp453
(dp454
g67
(dp455
g75
I4
ssg76
g449
sg69
(lp456
g62
(g71
g64
NtRp457
(dp458
g67
(dp459
g75
I3
ssg76
Nsg69
(lp460
g62
(g78
g64
NtRp461
(dp462
g67
(dp463
sg76
g457
sg69
(lp464
g62
(g83
g64
NtRp465
(dp466
g67
(dp467
g87
g88
ssg76
g461
sg69
(lp468
g276
asbag62
(g83
g64
NtRp469
(dp470
g67
(dp471
g94
g95
ssg76
g461
sg69
(lp472
S':'
asbag62
(g83
g64
NtRp473
(dp474
g67
(dp475
sg76
g461
sg69
(lp476
g62
(g63
g64
NtRp477
(dp478
g67
(dp479
g75
I3
ssg76
g473
sg69
(lp480
S''
asbasbasbag62
(g78
g64
NtRp481
(dp482
g67
(dp483
sg76
g457
sg69
(lp484
g62
(g83
g64
NtRp485
(dp486
g67
(dp487
g87
g88
ssg76
g481
sg69
(lp488
g297
asbag62
(g83
g64
NtRp489
(dp490
g67
(dp491
g94
g95
ssg76
g481
sg69
(lp492
S':'
asbag62
(g83
g64
NtRp493
(dp494
g67
(dp495
sg76
g481
sg69
(lp496
g62
(g63
g64
NtRp497
(dp498
g67
(dp499
g75
I3
ssg76
g493
sg69
(lp500
S''
asbasbasbag62
(g78
g64
NtRp501
(dp502
g67
(dp503
sg76
g457
sg69
(lp504
g62
(g83
g64
NtRp505
(dp506
g67
(dp507
g87
g88
ssg76
g501
sg69
(lp508
g318
asbag62
(g83
g64
NtRp509
(dp510
g67
(dp511
g94
g95
ssg76
g501
sg69
(lp512
S':'
asbag62
(g83
g64
NtRp513
(dp514
g67
(dp515
sg76
g501
sg69
(lp516
g62
(g63
g64
NtRp517
(dp518
g67
(dp519
g75
I3
ssg76
g513
sg69
(lp520
S''
asbasbasbag62
(g78
g64
NtRp521
(dp522
g67
(dp523
sg76
g457
sg69
(lp524
g62
(g83
g64
NtRp525
(dp526
g67
(dp527
g87
g88
ssg76
g521
sg69
(lp528
g339
asbag62
(g83
g64
NtRp529
(dp530
g67
(dp531
g94
g95
ssg76
g521
sg69
(lp532
S':'
asbag62
(g83
g64
NtRp533
(dp534
g67
(dp535
sg76
g521
sg69
(lp536
g62
(g63
g64
NtRp537
(dp538
g67
(dp539
g75
I3
ssg76
g533
sg69
(lp540
S''
asbasbasbag62
(g78
g64
NtRp541
(dp542
g67
(dp543
sg76
g457
sg69
(lp544
g62
(g83
g64
NtRp545
(dp546
g67
(dp547
g87
g88
ssg76
g541
sg69
(lp548
g360
asbag62
(g83
g64
NtRp549
(dp550
g67
(dp551
g94
g95
ssg76
g541
sg69
(lp552
S':'
asbag62
(g83
g64
NtRp553
(dp554
g67
(dp555
sg76
g541
sg69
(lp556
g62
(g63
g64
NtRp557
(dp558
g67
(dp559
g75
I3
ssg76
g553
sg69
(lp560
S''
asbasbasbag62
(g78
g64
NtRp561
(dp562
g67
(dp563
sg76
g457
sg69
(lp564
g62
(g83
g64
NtRp565
(dp566
g67
(dp567
g87
g88
ssg76
g561
sg69
(lp568
g381
asbag62
(g83
g64
NtRp569
(dp570
g67
(dp571
g94
g95
ssg76
g561
sg69
(lp572
S':'
asbag62
(g83
g64
NtRp573
(dp574
g67
(dp575
sg76
g561
sg69
(lp576
g62
(g63
g64
NtRp577
(dp578
g67
(dp579
g75
I3
ssg76
g573
sg69
(lp580
S''
asbasbasbag62
(g78
g64
NtRp581
(dp582
g67
(dp583
sg76
g457
sg69
(lp584
g62
(g83
g64
NtRp585
(dp586
g67
(dp587
g87
g88
ssg76
g581
sg69
(lp588
g402
asbag62
(g83
g64
NtRp589
(dp590
g67
(dp591
g94
g95
ssg76
g581
sg69
(lp592
S':'
asbag62
(g83
g64
NtRp593
(dp594
g67
(dp595
sg76
g581
sg69
(lp596
g62
(g63
g64
NtRp597
(dp598
g67
(dp599
g75
I3
ssg76
g593
sg69
(lp600
S''
asbasbasbag62
(g78
g64
NtRp601
(dp602
g67
(dp603
sg76
g457
sg69
(lp604
g62
(g83
g64
NtRp605
(dp606
g67
(dp607
g87
g88
ssg76
g601
sg69
(lp608
g423
asbag62
(g83
g64
NtRp609
(dp610
g67
(dp611
g94
g95
ssg76
g601
sg69
(lp612
S':'
asbag62
(g83
g64
NtRp613
(dp614
g67
(dp615
sg76
g601
sg69
(lp616
g62
(g63
g64
NtRp617
(dp618
g67
(dp619
g75
I3
ssg76
g613
sg69
(lp620
S''
asbasbasbasbasbasbasbag62
(g78
g64
NtRp621
(dp622
g67
(dp623
sg76
g239
sg69
(lp624
g62
(g83
g64
NtRp625
(dp626
g67
(dp627
g87
g88
ssg76
g621
sg69
(lp628
S'session_id_welcome'
p629
asbag62
(g83
g64
NtRp630
(dp631
g67
(dp632
g94
g95
ssg76
g621
sg69
(lp633
S':'
asbag62
(g83
g64
NtRp634
(dp635
g67
(dp636
sg76
g621
sg69
(lp637
g62
(g63
g64
NtRp638
(dp639
g67
(dp640
g75
I4
ssg76
g634
sg69
(lp641
g62
(g71
g64
NtRp642
(dp643
g67
(dp644
g75
I3
ssg76
Nsg69
(lp645
g62
(g78
g64
NtRp646
(dp647
g67
(dp648
sg76
g642
sg69
(lp649
g62
(g83
g64
NtRp650
(dp651
g67
(dp652
g87
g88
ssg76
g646
sg69
(lp653
g276
asbag62
(g83
g64
NtRp654
(dp655
g67
(dp656
g94
g95
ssg76
g646
sg69
(lp657
S':'
asbag62
(g83
g64
NtRp658
(dp659
g67
(dp660
sg76
g646
sg69
(lp661
g62
(g63
g64
NtRp662
(dp663
g67
(dp664
g75
I3
ssg76
g658
sg69
(lp665
S''
asbasbasbag62
(g78
g64
NtRp666
(dp667
g67
(dp668
sg76
g642
sg69
(lp669
g62
(g83
g64
NtRp670
(dp671
g67
(dp672
g87
g88
ssg76
g666
sg69
(lp673
g297
asbag62
(g83
g64
NtRp674
(dp675
g67
(dp676
g94
g95
ssg76
g666
sg69
(lp677
S':'
asbag62
(g83
g64
NtRp678
(dp679
g67
(dp680
sg76
g666
sg69
(lp681
g62
(g63
g64
NtRp682
(dp683
g67
(dp684
g75
I3
ssg76
g678
sg69
(lp685
S''
asbasbasbag62
(g78
g64
NtRp686
(dp687
g67
(dp688
sg76
g642
sg69
(lp689
g62
(g83
g64
NtRp690
(dp691
g67
(dp692
g87
g88
ssg76
g686
sg69
(lp693
g318
asbag62
(g83
g64
NtRp694
(dp695
g67
(dp696
g94
g95
ssg76
g686
sg69
(lp697
S':'
asbag62
(g83
g64
NtRp698
(dp699
g67
(dp700
sg76
g686
sg69
(lp701
g62
(g63
g64
NtRp702
(dp703
g67
(dp704
g75
I3
ssg76
g698
sg69
(lp705
S''
asbasbasbag62
(g78
g64
NtRp706
(dp707
g67
(dp708
sg76
g642
sg69
(lp709
g62
(g83
g64
NtRp710
(dp711
g67
(dp712
g87
g88
ssg76
g706
sg69
(lp713
g339
asbag62
(g83
g64
NtRp714
(dp715
g67
(dp716
g94
g95
ssg76
g706
sg69
(lp717
S':'
asbag62
(g83
g64
NtRp718
(dp719
g67
(dp720
sg76
g706
sg69
(lp721
g62
(g63
g64
NtRp722
(dp723
g67
(dp724
g75
I3
ssg76
g718
sg69
(lp725
S''
asbasbasbag62
(g78
g64
NtRp726
(dp727
g67
(dp728
sg76
g642
sg69
(lp729
g62
(g83
g64
NtRp730
(dp731
g67
(dp732
g87
g88
ssg76
g726
sg69
(lp733
g360
asbag62
(g83
g64
NtRp734
(dp735
g67
(dp736
g94
g95
ssg76
g726
sg69
(lp737
S':'
asbag62
(g83
g64
NtRp738
(dp739
g67
(dp740
sg76
g726
sg69
(lp741
g62
(g63
g64
NtRp742
(dp743
g67
(dp744
g75
I3
ssg76
g738
sg69
(lp745
S''
asbasbasbag62
(g78
g64
NtRp746
(dp747
g67
(dp748
sg76
g642
sg69
(lp749
g62
(g83
g64
NtRp750
(dp751
g67
(dp752
g87
g88
ssg76
g746
sg69
(lp753
g381
asbag62
(g83
g64
NtRp754
(dp755
g67
(dp756
g94
g95
ssg76
g746
sg69
(lp757
S':'
asbag62
(g83
g64
NtRp758
(dp759
g67
(dp760
sg76
g746
sg69
(lp761
g62
(g63
g64
NtRp762
(dp763
g67
(dp764
g75
I3
ssg76
g758
sg69
(lp765
S''
asbasbasbag62
(g78
g64
NtRp766
(dp767
g67
(dp768
sg76
g642
sg69
(lp769
g62
(g83
g64
NtRp770
(dp771
g67
(dp772
g87
g88
ssg76
g766
sg69
(lp773
g402
asbag62
(g83
g64
NtRp774
(dp775
g67
(dp776
g94
g95
ssg76
g766
sg69
(lp777
S':'
asbag62
(g83
g64
NtRp778
(dp779
g67
(dp780
sg76
g766
sg69
(lp781
g62
(g63
g64
NtRp782
(dp783
g67
(dp784
g75
I3
ssg76
g778
sg69
(lp785
S''
asbasbasbag62
(g78
g64
NtRp786
(dp787
g67
(dp788
sg76
g642
sg69
(lp789
g62
(g83
g64
NtRp790
(dp791
g67
(dp792
g87
g88
ssg76
g786
sg69
(lp793
g423
asbag62
(g83
g64
NtRp794
(dp795
g67
(dp796
g94
g95
ssg76
g786
sg69
(lp797
S':'
asbag62
(g83
g64
NtRp798
(dp799
g67
(dp800
sg76
g786
sg69
(lp801
g62
(g63
g64
NtRp802
(dp803
g67
(dp804
g75
I3
ssg76
g798
sg69
(lp805
S''
asbasbasbasbasbasbasbasbasbasbasbag62
(g78
g64
NtRp806
(dp807
g67
(dp808
sg76
g72
sg69
(lp809
g62
(g83
g64
NtRp810
(dp811
g67
(dp812
g87
g88
ssg76
g806
sg69
(lp813
S'env'
p814
asbag62
(g83
g64
NtRp815
(dp816
g67
(dp817
g94
g95
ssg76
g806
sg69
(lp818
S':'
asbag62
(g83
g64
NtRp819
(dp820
g67
(dp821
sg76
g806
sg69
(lp822
g62
(g63
g64
NtRp823
(dp824
g67
(dp825
g75
I5
ssg76
g819
sg69
(lp826
g62
(g71
g64
NtRp827
(dp828
g67
(dp829
g75
I4
ssg76
Nsg69
(lp830
g62
(g78
g64
NtRp831
(dp832
g67
(dp833
sg76
g827
sg69
(lp834
g62
(g83
g64
NtRp835
(dp836
g67
(dp837
g87
g88
ssg76
g831
sg69
(lp838
S'app_folders'
p839
asbag62
(g83
g64
NtRp840
(dp841
g67
(dp842
g94
g95
ssg76
g831
sg69
(lp843
S':'
asbag62
(g83
g64
NtRp844
(dp845
g67
(dp846
sg76
g831
sg69
(lp847
g62
(g63
g64
NtRp848
(dp849
g67
(dp850
g75
I4
ssg76
g844
sg69
(lp851
S"set(['/Users/robertdo/hiremeintech/applications/hiremeintech/', '/Users/robertdo/hiremeintech/applications/admin/', '/Users/robertdo/hiremeintech/applications/examples/', '/Users/robertdo/hiremeintech/applications/welcome/'])"
p852
asbasbasbag62
(g78
g64
NtRp853
(dp854
g67
(dp855
sg76
g827
sg69
(lp856
g62
(g83
g64
NtRp857
(dp858
g67
(dp859
g87
g88
ssg76
g853
sg69
(lp860
S'applications_parent'
p861
asbag62
(g83
g64
NtRp862
(dp863
g67
(dp864
g94
g95
ssg76
g853
sg69
(lp865
S':'
asbag62
(g83
g64
NtRp866
(dp867
g67
(dp868
sg76
g853
sg69
(lp869
g62
(g63
g64
NtRp870
(dp871
g67
(dp872
g75
I4
ssg76
g866
sg69
(lp873
S'/Users/robertdo/hiremeintech'
p874
asbasbasbag62
(g78
g64
NtRp875
(dp876
g67
(dp877
sg76
g827
sg69
(lp878
g62
(g83
g64
NtRp879
(dp880
g67
(dp881
g87
g88
ssg76
g875
sg69
(lp882
S'cmd_args'
p883
asbag62
(g83
g64
NtRp884
(dp885
g67
(dp886
g94
g95
ssg76
g875
sg69
(lp887
S':'
asbag62
(g83
g64
NtRp888
(dp889
g67
(dp890
sg76
g875
sg69
(lp891
g62
(g63
g64
NtRp892
(dp893
g67
(dp894
g75
I4
ssg76
g888
sg69
(lp895
g62
(g71
g64
NtRp896
(dp897
g67
(dp898
g75
I3
ssg76
Nsg69
(lp899
sbasbasbasbag62
(g78
g64
NtRp900
(dp901
g67
(dp902
sg76
g827
sg69
(lp903
g62
(g83
g64
NtRp904
(dp905
g67
(dp906
g87
g88
ssg76
g900
sg69
(lp907
S'cmd_options'
p908
asbag62
(g83
g64
NtRp909
(dp910
g67
(dp911
g94
g95
ssg76
g900
sg69
(lp912
S':'
asbag62
(g83
g64
NtRp913
(dp914
g67
(dp915
sg76
g900
sg69
(lp916
g62
(g63
g64
NtRp917
(dp918
g67
(dp919
g75
I4
ssg76
g913
sg69
(lp920
S"<Values at 0x109376248: {'verbose': False, 'ip': '127.0.0.1', 'shutdown_timeout': 5, 'taskbar': False, 'nocron': False, 'pid_filename': 'httpserver.pid', 'maxthreads': None, 'softcron': False, 'server_name': 'robertdo-macbookpro', 'bpython': False, 'nogui': False, 'port': 8000, 'extcron': False, 'debuglevel': 30, 'test': None, 'folder': '/Users/robertdo/hiremeintech', 'config': '', 'import_models': False, 'winservice': '', 'shell': None, 'run': '', 'log_filename': 'httpserver.log', 'args': [''], 'socket_timeout': 5, 'ssl_ca_certificate': None, 'scheduler': None, 'profiler_filename': None, 'ssl_private_key': '', 'password': '<ask>', 'request_queue_size': 5, 'ssl_certificate': '', 'cronjob': False, 'numthreads': None, 'quiet': False, 'interfaces': None, 'minthreads': None, 'timeout': 10, 'plain': False, 'nobanner': False}>"
p921
asbasbasbag62
(g78
g64
NtRp922
(dp923
g67
(dp924
sg76
g827
sg69
(lp925
g62
(g83
g64
NtRp926
(dp927
g67
(dp928
g87
g88
ssg76
g922
sg69
(lp929
S'db_sessions'
p930
asbag62
(g83
g64
NtRp931
(dp932
g67
(dp933
g94
g95
ssg76
g922
sg69
(lp934
S':'
asbag62
(g83
g64
NtRp935
(dp936
g67
(dp937
sg76
g922
sg69
(lp938
g62
(g63
g64
NtRp939
(dp940
g67
(dp941
g75
I4
ssg76
g935
sg69
(lp942
S'set([])'
p943
asbasbasbag62
(g78
g64
NtRp944
(dp945
g67
(dp946
sg76
g827
sg69
(lp947
g62
(g83
g64
NtRp948
(dp949
g67
(dp950
g87
g88
ssg76
g944
sg69
(lp951
S'debugging'
p952
asbag62
(g83
g64
NtRp953
(dp954
g67
(dp955
g94
g95
ssg76
g944
sg69
(lp956
S':'
asbag62
(g83
g64
NtRp957
(dp958
g67
(dp959
sg76
g944
sg69
(lp960
g62
(g63
g64
NtRp961
(dp962
g67
(dp963
g75
I4
ssg76
g957
sg69
(lp964
g105
asbasbasbag62
(g78
g64
NtRp965
(dp966
g67
(dp967
sg76
g827
sg69
(lp968
g62
(g83
g64
NtRp969
(dp970
g67
(dp971
g87
g88
ssg76
g965
sg69
(lp972
S'gluon_parent'
p973
asbag62
(g83
g64
NtRp974
(dp975
g67
(dp976
g94
g95
ssg76
g965
sg69
(lp977
S':'
asbag62
(g83
g64
NtRp978
(dp979
g67
(dp980
sg76
g965
sg69
(lp981
g62
(g63
g64
NtRp982
(dp983
g67
(dp984
g75
I4
ssg76
g978
sg69
(lp985
S'/Users/robertdo/hiremeintech'
p986
asbasbasbag62
(g78
g64
NtRp987
(dp988
g67
(dp989
sg76
g827
sg69
(lp990
g62
(g83
g64
NtRp991
(dp992
g67
(dp993
g87
g88
ssg76
g987
sg69
(lp994
S'http_accept'
p995
asbag62
(g83
g64
NtRp996
(dp997
g67
(dp998
g94
g95
ssg76
g987
sg69
(lp999
S':'
asbag62
(g83
g64
NtRp1000
(dp1001
g67
(dp1002
sg76
g987
sg69
(lp1003
g62
(g63
g64
NtRp1004
(dp1005
g67
(dp1006
g75
I4
ssg76
g1000
sg69
(lp1007
S'text/html,application/xhtml+xml,application/xml;q=0.9,*/*;q=0.8'
p1008
asbasbasbag62
(g78
g64
NtRp1009
(dp1010
g67
(dp1011
sg76
g827
sg69
(lp1012
g62
(g83
g64
NtRp1013
(dp1014
g67
(dp1015
g87
g88
ssg76
g1009
sg69
(lp1016
S'http_accept_charset'
p1017
asbag62
(g83
g64
NtRp1018
(dp1019
g67
(dp1020
g94
g95
ssg76
g1009
sg69
(lp1021
S':'
asbag62
(g83
g64
NtRp1022
(dp1023
g67
(dp1024
sg76
g1009
sg69
(lp1025
g62
(g63
g64
NtRp1026
(dp1027
g67
(dp1028
g75
I4
ssg76
g1022
sg69
(lp1029
S'ISO-8859-1,utf-8;q=0.7,*;q=0.3'
p1030
asbasbasbag62
(g78
g64
NtRp1031
(dp1032
g67
(dp1033
sg76
g827
sg69
(lp1034
g62
(g83
g64
NtRp1035
(dp1036
g67
(dp1037
g87
g88
ssg76
g1031
sg69
(lp1038
S'http_accept_encoding'
p1039
asbag62
(g83
g64
NtRp1040
(dp1041
g67
(dp1042
g94
g95
ssg76
g1031
sg69
(lp1043
S':'
asbag62
(g83
g64
NtRp1044
(dp1045
g67
(dp1046
sg76
g1031
sg69
(lp1047
g62
(g63
g64
NtRp1048
(dp1049
g67
(dp1050
g75
I4
ssg76
g1044
sg69
(lp1051
S'gzip,deflate,sdch'
p1052
asbasbasbag62
(g78
g64
NtRp1053
(dp1054
g67
(dp1055
sg76
g827
sg69
(lp1056
g62
(g83
g64
NtRp1057
(dp1058
g67
(dp1059
g87
g88
ssg76
g1053
sg69
(lp1060
S'http_accept_language'
p1061
asbag62
(g83
g64
NtRp1062
(dp1063
g67
(dp1064
g94
g95
ssg76
g1053
sg69
(lp1065
S':'
asbag62
(g83
g64
NtRp1066
(dp1067
g67
(dp1068
sg76
g1053
sg69
(lp1069
g62
(g63
g64
NtRp1070
(dp1071
g67
(dp1072
g75
I4
ssg76
g1066
sg69
(lp1073
S'en-US,en;q=0.8'
p1074
asbasbasbag62
(g78
g64
NtRp1075
(dp1076
g67
(dp1077
sg76
g827
sg69
(lp1078
g62
(g83
g64
NtRp1079
(dp1080
g67
(dp1081
g87
g88
ssg76
g1075
sg69
(lp1082
S'http_connection'
p1083
asbag62
(g83
g64
NtRp1084
(dp1085
g67
(dp1086
g94
g95
ssg76
g1075
sg69
(lp1087
S':'
asbag62
(g83
g64
NtRp1088
(dp1089
g67
(dp1090
sg76
g1075
sg69
(lp1091
g62
(g63
g64
NtRp1092
(dp1093
g67
(dp1094
g75
I4
ssg76
g1088
sg69
(lp1095
S'keep-alive'
p1096
asbasbasbag62
(g78
g64
NtRp1097
(dp1098
g67
(dp1099
sg76
g827
sg69
(lp1100
g62
(g83
g64
NtRp1101
(dp1102
g67
(dp1103
g87
g88
ssg76
g1097
sg69
(lp1104
S'http_cookie'
p1105
asbag62
(g83
g64
NtRp1106
(dp1107
g67
(dp1108
g94
g95
ssg76
g1097
sg69
(lp1109
S':'
asbag62
(g83
g64
NtRp1110
(dp1111
g67
(dp1112
sg76
g1097
sg69
(lp1113
g62
(g63
g64
NtRp1114
(dp1115
g67
(dp1116
g75
I4
ssg76
g1110
sg69
(lp1117
S'session_id_hiremeintech=127.0.0.1-0d2f28b7-34b4-40c4-87e2-cc4d3ea3bf8b; session_id_admin=127.0.0.1-fdc938a4-1456-4390-aff8-650e116e88b0; session_id_welcome=127.0.0.1-5472d279-727f-42f5-952a-e5ff71accd8c'
p1118
asbasbasbag62
(g78
g64
NtRp1119
(dp1120
g67
(dp1121
sg76
g827
sg69
(lp1122
g62
(g83
g64
NtRp1123
(dp1124
g67
(dp1125
g87
g88
ssg76
g1119
sg69
(lp1126
S'http_host'
p1127
asbag62
(g83
g64
NtRp1128
(dp1129
g67
(dp1130
g94
g95
ssg76
g1119
sg69
(lp1131
S':'
asbag62
(g83
g64
NtRp1132
(dp1133
g67
(dp1134
sg76
g1119
sg69
(lp1135
g62
(g63
g64
NtRp1136
(dp1137
g67
(dp1138
g75
I4
ssg76
g1132
sg69
(lp1139
S'127.0.0.1:8000'
p1140
asbasbasbag62
(g78
g64
NtRp1141
(dp1142
g67
(dp1143
sg76
g827
sg69
(lp1144
g62
(g83
g64
NtRp1145
(dp1146
g67
(dp1147
g87
g88
ssg76
g1141
sg69
(lp1148
S'http_user_agent'
p1149
asbag62
(g83
g64
NtRp1150
(dp1151
g67
(dp1152
g94
g95
ssg76
g1141
sg69
(lp1153
S':'
asbag62
(g83
g64
NtRp1154
(dp1155
g67
(dp1156
sg76
g1141
sg69
(lp1157
g62
(g63
g64
NtRp1158
(dp1159
g67
(dp1160
g75
I4
ssg76
g1154
sg69
(lp1161
S'Mozilla/5.0 (Macintosh; Intel Mac OS X 10_7_3) AppleWebKit/535.11 (KHTML, like Gecko) Chrome/17.0.963.79 Safari/535.11'
p1162
asbasbasbag62
(g78
g64
NtRp1163
(dp1164
g67
(dp1165
sg76
g827
sg69
(lp1166
g62
(g83
g64
NtRp1167
(dp1168
g67
(dp1169
g87
g88
ssg76
g1163
sg69
(lp1170
S'is_jython'
p1171
asbag62
(g83
g64
NtRp1172
(dp1173
g67
(dp1174
g94
g95
ssg76
g1163
sg69
(lp1175
S':'
asbag62
(g83
g64
NtRp1176
(dp1177
g67
(dp1178
sg76
g1163
sg69
(lp1179
g62
(g63
g64
NtRp1180
(dp1181
g67
(dp1182
g75
I4
ssg76
g1176
sg69
(lp1183
g105
asbasbasbag62
(g78
g64
NtRp1184
(dp1185
g67
(dp1186
sg76
g827
sg69
(lp1187
g62
(g83
g64
NtRp1188
(dp1189
g67
(dp1190
g87
g88
ssg76
g1184
sg69
(lp1191
S'is_pypy'
p1192
asbag62
(g83
g64
NtRp1193
(dp1194
g67
(dp1195
g94
g95
ssg76
g1184
sg69
(lp1196
S':'
asbag62
(g83
g64
NtRp1197
(dp1198
g67
(dp1199
sg76
g1184
sg69
(lp1200
g62
(g63
g64
NtRp1201
(dp1202
g67
(dp1203
g75
I4
ssg76
g1197
sg69
(lp1204
g105
asbasbasbag62
(g78
g64
NtRp1205
(dp1206
g67
(dp1207
sg76
g827
sg69
(lp1208
g62
(g83
g64
NtRp1209
(dp1210
g67
(dp1211
g87
g88
ssg76
g1205
sg69
(lp1212
S'path_info'
p1213
asbag62
(g83
g64
NtRp1214
(dp1215
g67
(dp1216
g94
g95
ssg76
g1205
sg69
(lp1217
S':'
asbag62
(g83
g64
NtRp1218
(dp1219
g67
(dp1220
sg76
g1205
sg69
(lp1221
g62
(g63
g64
NtRp1222
(dp1223
g67
(dp1224
g75
I4
ssg76
g1218
sg69
(lp1225
S'/hiremeintech'
p1226
asbasbasbag62
(g78
g64
NtRp1227
(dp1228
g67
(dp1229
sg76
g827
sg69
(lp1230
g62
(g83
g64
NtRp1231
(dp1232
g67
(dp1233
g87
g88
ssg76
g1227
sg69
(lp1234
S'query_string'
p1235
asbag62
(g83
g64
NtRp1236
(dp1237
g67
(dp1238
g94
g95
ssg76
g1227
sg69
(lp1239
S':'
asbag62
(g83
g64
NtRp1240
(dp1241
g67
(dp1242
sg76
g1227
sg69
(lp1243
g62
(g63
g64
NtRp1244
(dp1245
g67
(dp1246
g75
I4
ssg76
g1240
sg69
(lp1247
S''
asbasbasbag62
(g78
g64
NtRp1248
(dp1249
g67
(dp1250
sg76
g827
sg69
(lp1251
g62
(g83
g64
NtRp1252
(dp1253
g67
(dp1254
g87
g88
ssg76
g1248
sg69
(lp1255
S'remote_addr'
p1256
asbag62
(g83
g64
NtRp1257
(dp1258
g67
(dp1259
g94
g95
ssg76
g1248
sg69
(lp1260
S':'
asbag62
(g83
g64
NtRp1261
(dp1262
g67
(dp1263
sg76
g1248
sg69
(lp1264
g62
(g63
g64
NtRp1265
(dp1266
g67
(dp1267
g75
I4
ssg76
g1261
sg69
(lp1268
g195
asbasbasbag62
(g78
g64
NtRp1269
(dp1270
g67
(dp1271
sg76
g827
sg69
(lp1272
g62
(g83
g64
NtRp1273
(dp1274
g67
(dp1275
g87
g88
ssg76
g1269
sg69
(lp1276
S'remote_port'
p1277
asbag62
(g83
g64
NtRp1278
(dp1279
g67
(dp1280
g94
g95
ssg76
g1269
sg69
(lp1281
S':'
asbag62
(g83
g64
NtRp1282
(dp1283
g67
(dp1284
sg76
g1269
sg69
(lp1285
g62
(g63
g64
NtRp1286
(dp1287
g67
(dp1288
g75
I4
ssg76
g1282
sg69
(lp1289
S'51547'
p1290
asbasbasbag62
(g78
g64
NtRp1291
(dp1292
g67
(dp1293
sg76
g827
sg69
(lp1294
g62
(g83
g64
NtRp1295
(dp1296
g67
(dp1297
g87
g88
ssg76
g1291
sg69
(lp1298
S'request_method'
p1299
asbag62
(g83
g64
NtRp1300
(dp1301
g67
(dp1302
g94
g95
ssg76
g1291
sg69
(lp1303
S':'
asbag62
(g83
g64
NtRp1304
(dp1305
g67
(dp1306
sg76
g1291
sg69
(lp1307
g62
(g63
g64
NtRp1308
(dp1309
g67
(dp1310
g75
I4
ssg76
g1304
sg69
(lp1311
S'GET'
p1312
asbasbasbag62
(g78
g64
NtRp1313
(dp1314
g67
(dp1315
sg76
g827
sg69
(lp1316
g62
(g83
g64
NtRp1317
(dp1318
g67
(dp1319
g87
g88
ssg76
g1313
sg69
(lp1320
S'script_name'
p1321
asbag62
(g83
g64
NtRp1322
(dp1323
g67
(dp1324
g94
g95
ssg76
g1313
sg69
(lp1325
S':'
asbag62
(g83
g64
NtRp1326
(dp1327
g67
(dp1328
sg76
g1313
sg69
(lp1329
g62
(g63
g64
NtRp1330
(dp1331
g67
(dp1332
g75
I4
ssg76
g1326
sg69
(lp1333
S''
asbasbasbag62
(g78
g64
NtRp1334
(dp1335
g67
(dp1336
sg76
g827
sg69
(lp1337
g62
(g83
g64
NtRp1338
(dp1339
g67
(dp1340
g87
g88
ssg76
g1334
sg69
(lp1341
S'server_name'
p1342
asbag62
(g83
g64
NtRp1343
(dp1344
g67
(dp1345
g94
g95
ssg76
g1334
sg69
(lp1346
S':'
asbag62
(g83
g64
NtRp1347
(dp1348
g67
(dp1349
sg76
g1334
sg69
(lp1350
g62
(g63
g64
NtRp1351
(dp1352
g67
(dp1353
g75
I4
ssg76
g1347
sg69
(lp1354
S'robertdo-macbookpro'
p1355
asbasbasbag62
(g78
g64
NtRp1356
(dp1357
g67
(dp1358
sg76
g827
sg69
(lp1359
g62
(g83
g64
NtRp1360
(dp1361
g67
(dp1362
g87
g88
ssg76
g1356
sg69
(lp1363
S'server_port'
p1364
asbag62
(g83
g64
NtRp1365
(dp1366
g67
(dp1367
g94
g95
ssg76
g1356
sg69
(lp1368
S':'
asbag62
(g83
g64
NtRp1369
(dp1370
g67
(dp1371
sg76
g1356
sg69
(lp1372
g62
(g63
g64
NtRp1373
(dp1374
g67
(dp1375
g75
I4
ssg76
g1369
sg69
(lp1376
S'8000'
p1377
asbasbasbag62
(g78
g64
NtRp1378
(dp1379
g67
(dp1380
sg76
g827
sg69
(lp1381
g62
(g83
g64
NtRp1382
(dp1383
g67
(dp1384
g87
g88
ssg76
g1378
sg69
(lp1385
S'server_protocol'
p1386
asbag62
(g83
g64
NtRp1387
(dp1388
g67
(dp1389
g94
g95
ssg76
g1378
sg69
(lp1390
S':'
asbag62
(g83
g64
NtRp1391
(dp1392
g67
(dp1393
sg76
g1378
sg69
(lp1394
g62
(g63
g64
NtRp1395
(dp1396
g67
(dp1397
g75
I4
ssg76
g1391
sg69
(lp1398
S'HTTP/1.1'
p1399
asbasbasbag62
(g78
g64
NtRp1400
(dp1401
g67
(dp1402
sg76
g827
sg69
(lp1403
g62
(g83
g64
NtRp1404
(dp1405
g67
(dp1406
g87
g88
ssg76
g1400
sg69
(lp1407
S'server_software'
p1408
asbag62
(g83
g64
NtRp1409
(dp1410
g67
(dp1411
g94
g95
ssg76
g1400
sg69
(lp1412
S':'
asbag62
(g83
g64
NtRp1413
(dp1414
g67
(dp1415
sg76
g1400
sg69
(lp1416
g62
(g63
g64
NtRp1417
(dp1418
g67
(dp1419
g75
I4
ssg76
g1413
sg69
(lp1420
S'Rocket 1.2.4'
p1421
asbasbasbag62
(g78
g64
NtRp1422
(dp1423
g67
(dp1424
sg76
g827
sg69
(lp1425
g62
(g83
g64
NtRp1426
(dp1427
g67
(dp1428
g87
g88
ssg76
g1422
sg69
(lp1429
S'web2py_crontype'
p1430
asbag62
(g83
g64
NtRp1431
(dp1432
g67
(dp1433
g94
g95
ssg76
g1422
sg69
(lp1434
S':'
asbag62
(g83
g64
NtRp1435
(dp1436
g67
(dp1437
sg76
g1422
sg69
(lp1438
g62
(g63
g64
NtRp1439
(dp1440
g67
(dp1441
g75
I4
ssg76
g1435
sg69
(lp1442
S'hard'
p1443
asbasbasbag62
(g78
g64
NtRp1444
(dp1445
g67
(dp1446
sg76
g827
sg69
(lp1447
g62
(g83
g64
NtRp1448
(dp1449
g67
(dp1450
g87
g88
ssg76
g1444
sg69
(lp1451
S'web2py_path'
p1452
asbag62
(g83
g64
NtRp1453
(dp1454
g67
(dp1455
g94
g95
ssg76
g1444
sg69
(lp1456
S':'
asbag62
(g83
g64
NtRp1457
(dp1458
g67
(dp1459
sg76
g1444
sg69
(lp1460
g62
(g63
g64
NtRp1461
(dp1462
g67
(dp1463
g75
I4
ssg76
g1457
sg69
(lp1464
g874
asbasbasbag62
(g78
g64
NtRp1465
(dp1466
g67
(dp1467
sg76
g827
sg69
(lp1468
g62
(g83
g64
NtRp1469
(dp1470
g67
(dp1471
g87
g88
ssg76
g1465
sg69
(lp1472
S'web2py_version'
p1473
asbag62
(g83
g64
NtRp1474
(dp1475
g67
(dp1476
g94
g95
ssg76
g1465
sg69
(lp1477
S':'
asbag62
(g83
g64
NtRp1478
(dp1479
g67
(dp1480
sg76
g1465
sg69
(lp1481
g62
(g63
g64
NtRp1482
(dp1483
g67
(dp1484
g75
I4
ssg76
g1478
sg69
(lp1485
g62
(g71
g64
NtRp1486
(dp1487
g67
(dp1488
g75
I3
ssg76
Nsg69
(lp1489
g62
(g78
g64
NtRp1490
(dp1491
g67
(dp1492
sg76
g1486
sg69
(lp1493
g62
(g83
g64
NtRp1494
(dp1495
g67
(dp1496
sg76
g1490
sg69
(lp1497
g62
(g63
g64
NtRp1498
(dp1499
g67
(dp1500
g75
I3
ssg76
g1494
sg69
(lp1501
S'1'
asbasbasbag62
(g78
g64
NtRp1502
(dp1503
g67
(dp1504
sg76
g1486
sg69
(lp1505
g62
(g83
g64
NtRp1506
(dp1507
g67
(dp1508
sg76
g1502
sg69
(lp1509
g62
(g63
g64
NtRp1510
(dp1511
g67
(dp1512
g75
I3
ssg76
g1506
sg69
(lp1513
S'99'
p1514
asbasbasbag62
(g78
g64
NtRp1515
(dp1516
g67
(dp1517
sg76
g1486
sg69
(lp1518
g62
(g83
g64
NtRp1519
(dp1520
g67
(dp1521
sg76
g1515
sg69
(lp1522
g62
(g63
g64
NtRp1523
(dp1524
g67
(dp1525
g75
I3
ssg76
g1519
sg69
(lp1526
S'7'
asbasbasbag62
(g78
g64
NtRp1527
(dp1528
g67
(dp1529
sg76
g1486
sg69
(lp1530
g62
(g83
g64
NtRp1531
(dp1532
g67
(dp1533
sg76
g1527
sg69
(lp1534
g62
(g63
g64
NtRp1535
(dp1536
g67
(dp1537
g75
I3
ssg76
g1531
sg69
(lp1538
S'datetime.datetime(2012, 3, 4, 22, 12, 8)'
p1539
asbasbasbag62
(g78
g64
NtRp1540
(dp1541
g67
(dp1542
sg76
g1486
sg69
(lp1543
g62
(g83
g64
NtRp1544
(dp1545
g67
(dp1546
sg76
g1540
sg69
(lp1547
g62
(g63
g64
NtRp1548
(dp1549
g67
(dp1550
g75
I3
ssg76
g1544
sg69
(lp1551
S'stable'
p1552
asbasbasbasbasbasbasbag62
(g78
g64
NtRp1553
(dp1554
g67
(dp1555
sg76
g827
sg69
(lp1556
g62
(g83
g64
NtRp1557
(dp1558
g67
(dp1559
g87
g88
ssg76
g1553
sg69
(lp1560
S'wsgi_errors'
p1561
asbag62
(g83
g64
NtRp1562
(dp1563
g67
(dp1564
g94
g95
ssg76
g1553
sg69
(lp1565
S':'
asbag62
(g83
g64
NtRp1566
(dp1567
g67
(dp1568
sg76
g1553
sg69
(lp1569
g62
(g63
g64
NtRp1570
(dp1571
g67
(dp1572
g75
I4
ssg76
g1566
sg69
(lp1573
S"<open file '<stderr>', mode 'w' at 0x108918270>"
p1574
asbasbasbag62
(g78
g64
NtRp1575
(dp1576
g67
(dp1577
sg76
g827
sg69
(lp1578
g62
(g83
g64
NtRp1579
(dp1580
g67
(dp1581
g87
g88
ssg76
g1575
sg69
(lp1582
S'wsgi_file_wrapper'
p1583
asbag62
(g83
g64
NtRp1584
(dp1585
g67
(dp1586
g94
g95
ssg76
g1575
sg69
(lp1587
S':'
asbag62
(g83
g64
NtRp1588
(dp1589
g67
(dp1590
sg76
g1575
sg69
(lp1591
g62
(g63
g64
NtRp1592
(dp1593
g67
(dp1594
g75
I4
ssg76
g1588
sg69
(lp1595
S'<class wsgiref.util.FileWrapper at 0x10928e258>'
p1596
asbasbasbag62
(g78
g64
NtRp1597
(dp1598
g67
(dp1599
sg76
g827
sg69
(lp1600
g62
(g83
g64
NtRp1601
(dp1602
g67
(dp1603
g87
g88
ssg76
g1597
sg69
(lp1604
S'wsgi_input'
p1605
asbag62
(g83
g64
NtRp1606
(dp1607
g67
(dp1608
g94
g95
ssg76
g1597
sg69
(lp1609
S':'
asbag62
(g83
g64
NtRp1610
(dp1611
g67
(dp1612
sg76
g1597
sg69
(lp1613
g62
(g63
g64
NtRp1614
(dp1615
g67
(dp1616
g75
I4
ssg76
g1610
sg69
(lp1617
S'<socket._fileobject object at 0x10de16550>'
p1618
asbasbasbag62
(g78
g64
NtRp1619
(dp1620
g67
(dp1621
sg76
g827
sg69
(lp1622
g62
(g83
g64
NtRp1623
(dp1624
g67
(dp1625
g87
g88
ssg76
g1619
sg69
(lp1626
S'wsgi_multiprocess'
p1627
asbag62
(g83
g64
NtRp1628
(dp1629
g67
(dp1630
g94
g95
ssg76
g1619
sg69
(lp1631
S':'
asbag62
(g83
g64
NtRp1632
(dp1633
g67
(dp1634
sg76
g1619
sg69
(lp1635
g62
(g63
g64
NtRp1636
(dp1637
g67
(dp1638
g75
I4
ssg76
g1632
sg69
(lp1639
g105
asbasbasbag62
(g78
g64
NtRp1640
(dp1641
g67
(dp1642
sg76
g827
sg69
(lp1643
g62
(g83
g64
NtRp1644
(dp1645
g67
(dp1646
g87
g88
ssg76
g1640
sg69
(lp1647
S'wsgi_multithread'
p1648
asbag62
(g83
g64
NtRp1649
(dp1650
g67
(dp1651
g94
g95
ssg76
g1640
sg69
(lp1652
S':'
asbag62
(g83
g64
NtRp1653
(dp1654
g67
(dp1655
sg76
g1640
sg69
(lp1656
g62
(g63
g64
NtRp1657
(dp1658
g67
(dp1659
g75
I4
ssg76
g1653
sg69
(lp1660
S'True'
p1661
asbasbasbag62
(g78
g64
NtRp1662
(dp1663
g67
(dp1664
sg76
g827
sg69
(lp1665
g62
(g83
g64
NtRp1666
(dp1667
g67
(dp1668
g87
g88
ssg76
g1662
sg69
(lp1669
S'wsgi_run_once'
p1670
asbag62
(g83
g64
NtRp1671
(dp1672
g67
(dp1673
g94
g95
ssg76
g1662
sg69
(lp1674
S':'
asbag62
(g83
g64
NtRp1675
(dp1676
g67
(dp1677
sg76
g1662
sg69
(lp1678
g62
(g63
g64
NtRp1679
(dp1680
g67
(dp1681
g75
I4
ssg76
g1675
sg69
(lp1682
g105
asbasbasbag62
(g78
g64
NtRp1683
(dp1684
g67
(dp1685
sg76
g827
sg69
(lp1686
g62
(g83
g64
NtRp1687
(dp1688
g67
(dp1689
g87
g88
ssg76
g1683
sg69
(lp1690
S'wsgi_url_scheme'
p1691
asbag62
(g83
g64
NtRp1692
(dp1693
g67
(dp1694
g94
g95
ssg76
g1683
sg69
(lp1695
S':'
asbag62
(g83
g64
NtRp1696
(dp1697
g67
(dp1698
sg76
g1683
sg69
(lp1699
g62
(g63
g64
NtRp1700
(dp1701
g67
(dp1702
g75
I4
ssg76
g1696
sg69
(lp1703
S'http'
p1704
asbasbasbag62
(g78
g64
NtRp1705
(dp1706
g67
(dp1707
sg76
g827
sg69
(lp1708
g62
(g83
g64
NtRp1709
(dp1710
g67
(dp1711
g87
g88
ssg76
g1705
sg69
(lp1712
S'wsgi_version'
p1713
asbag62
(g83
g64
NtRp1714
(dp1715
g67
(dp1716
g94
g95
ssg76
g1705
sg69
(lp1717
S':'
asbag62
(g83
g64
NtRp1718
(dp1719
g67
(dp1720
sg76
g1705
sg69
(lp1721
g62
(g63
g64
NtRp1722
(dp1723
g67
(dp1724
g75
I4
ssg76
g1718
sg69
(lp1725
g62
(g71
g64
NtRp1726
(dp1727
g67
(dp1728
g75
I3
ssg76
Nsg69
(lp1729
g62
(g78
g64
NtRp1730
(dp1731
g67
(dp1732
sg76
g1726
sg69
(lp1733
g62
(g83
g64
NtRp1734
(dp1735
g67
(dp1736
sg76
g1730
sg69
(lp1737
g62
(g63
g64
NtRp1738
(dp1739
g67
(dp1740
g75
I3
ssg76
g1734
sg69
(lp1741
S'1'
asbasbasbag62
(g78
g64
NtRp1742
(dp1743
g67
(dp1744
sg76
g1726
sg69
(lp1745
g62
(g83
g64
NtRp1746
(dp1747
g67
(dp1748
sg76
g1742
sg69
(lp1749
g62
(g63
g64
NtRp1750
(dp1751
g67
(dp1752
g75
I3
ssg76
g1746
sg69
(lp1753
S'0'
asbasbasbasbasbasbasbasbasbasbasbag62
(g78
g64
NtRp1754
(dp1755
g67
(dp1756
sg76
g72
sg69
(lp1757
g62
(g83
g64
NtRp1758
(dp1759
g67
(dp1760
g87
g88
ssg76
g1754
sg69
(lp1761
S'extension'
p1762
asbag62
(g83
g64
NtRp1763
(dp1764
g67
(dp1765
g94
g95
ssg76
g1754
sg69
(lp1766
S':'
asbag62
(g83
g64
NtRp1767
(dp1768
g67
(dp1769
sg76
g1754
sg69
(lp1770
g62
(g63
g64
NtRp1771
(dp1772
g67
(dp1773
g75
I5
ssg76
g1767
sg69
(lp1774
S'html'
p1775
asbasbasbag62
(g78
g64
NtRp1776
(dp1777
g67
(dp1778
sg76
g72
sg69
(lp1779
g62
(g83
g64
NtRp1780
(dp1781
g67
(dp1782
g87
g88
ssg76
g1776
sg69
(lp1783
S'folder'
p1784
asbag62
(g83
g64
NtRp1785
(dp1786
g67
(dp1787
g94
g95
ssg76
g1776
sg69
(lp1788
S':'
asbag62
(g83
g64
NtRp1789
(dp1790
g67
(dp1791
sg76
g1776
sg69
(lp1792
g62
(g63
g64
NtRp1793
(dp1794
g67
(dp1795
g75
I5
ssg76
g1789
sg69
(lp1796
S'/Users/robertdo/hiremeintech/applications/hiremeintech/'
p1797
asbasbasbag62
(g78
g64
NtRp1798
(dp1799
g67
(dp1800
sg76
g72
sg69
(lp1801
g62
(g83
g64
NtRp1802
(dp1803
g67
(dp1804
g87
g88
ssg76
g1798
sg69
(lp1805
S'function'
p1806
asbag62
(g83
g64
NtRp1807
(dp1808
g67
(dp1809
g94
g95
ssg76
g1798
sg69
(lp1810
S':'
asbag62
(g83
g64
NtRp1811
(dp1812
g67
(dp1813
sg76
g1798
sg69
(lp1814
g62
(g63
g64
NtRp1815
(dp1816
g67
(dp1817
g75
I5
ssg76
g1811
sg69
(lp1818
S'index'
p1819
asbasbasbag62
(g78
g64
NtRp1820
(dp1821
g67
(dp1822
sg76
g72
sg69
(lp1823
g62
(g83
g64
NtRp1824
(dp1825
g67
(dp1826
g87
g88
ssg76
g1820
sg69
(lp1827
S'get_vars'
p1828
asbag62
(g83
g64
NtRp1829
(dp1830
g67
(dp1831
g94
g95
ssg76
g1820
sg69
(lp1832
S':'
asbag62
(g83
g64
NtRp1833
(dp1834
g67
(dp1835
sg76
g1820
sg69
(lp1836
g62
(g63
g64
NtRp1837
(dp1838
g67
(dp1839
g75
I5
ssg76
g1833
sg69
(lp1840
g62
(g71
g64
NtRp1841
(dp1842
g67
(dp1843
g75
I4
ssg76
Nsg69
(lp1844
sbasbasbasbag62
(g78
g64
NtRp1845
(dp1846
g67
(dp1847
sg76
g72
sg69
(lp1848
g62
(g83
g64
NtRp1849
(dp1850
g67
(dp1851
g87
g88
ssg76
g1845
sg69
(lp1852
S'global_settings'
p1853
asbag62
(g83
g64
NtRp1854
(dp1855
g67
(dp1856
g94
g95
ssg76
g1845
sg69
(lp1857
S':'
asbag62
(g83
g64
NtRp1858
(dp1859
g67
(dp1860
sg76
g1845
sg69
(lp1861
g62
(g63
g64
NtRp1862
(dp1863
g67
(dp1864
g75
I5
ssg76
g1858
sg69
(lp1865
g62
(g71
g64
NtRp1866
(dp1867
g67
(dp1868
g75
I4
ssg76
Nsg69
(lp1869
g62
(g78
g64
NtRp1870
(dp1871
g67
(dp1872
sg76
g1866
sg69
(lp1873
g62
(g83
g64
NtRp1874
(dp1875
g67
(dp1876
g87
g88
ssg76
g1870
sg69
(lp1877
g839
asbag62
(g83
g64
NtRp1878
(dp1879
g67
(dp1880
g94
g95
ssg76
g1870
sg69
(lp1881
S':'
asbag62
(g83
g64
NtRp1882
(dp1883
g67
(dp1884
sg76
g1870
sg69
(lp1885
g62
(g63
g64
NtRp1886
(dp1887
g67
(dp1888
g75
I4
ssg76
g1882
sg69
(lp1889
S"set(['/Users/robertdo/hiremeintech/applications/hiremeintech/', '/Users/robertdo/hiremeintech/applications/admin/', '/Users/robertdo/hiremeintech/applications/examples/', '/Users/robertdo/hiremeintech/applications/welcome/'])"
p1890
asbasbasbag62
(g78
g64
NtRp1891
(dp1892
g67
(dp1893
sg76
g1866
sg69
(lp1894
g62
(g83
g64
NtRp1895
(dp1896
g67
(dp1897
g87
g88
ssg76
g1891
sg69
(lp1898
g861
asbag62
(g83
g64
NtRp1899
(dp1900
g67
(dp1901
g94
g95
ssg76
g1891
sg69
(lp1902
S':'
asbag62
(g83
g64
NtRp1903
(dp1904
g67
(dp1905
sg76
g1891
sg69
(lp1906
g62
(g63
g64
NtRp1907
(dp1908
g67
(dp1909
g75
I4
ssg76
g1903
sg69
(lp1910
g874
asbasbasbag62
(g78
g64
NtRp1911
(dp1912
g67
(dp1913
sg76
g1866
sg69
(lp1914
g62
(g83
g64
NtRp1915
(dp1916
g67
(dp1917
g87
g88
ssg76
g1911
sg69
(lp1918
g883
asbag62
(g83
g64
NtRp1919
(dp1920
g67
(dp1921
g94
g95
ssg76
g1911
sg69
(lp1922
S':'
asbag62
(g83
g64
NtRp1923
(dp1924
g67
(dp1925
sg76
g1911
sg69
(lp1926
g62
(g63
g64
NtRp1927
(dp1928
g67
(dp1929
g75
I4
ssg76
g1923
sg69
(lp1930
g62
(g71
g64
NtRp1931
(dp1932
g67
(dp1933
g75
I3
ssg76
Nsg69
(lp1934
sbasbasbasbag62
(g78
g64
NtRp1935
(dp1936
g67
(dp1937
sg76
g1866
sg69
(lp1938
g62
(g83
g64
NtRp1939
(dp1940
g67
(dp1941
g87
g88
ssg76
g1935
sg69
(lp1942
g908
asbag62
(g83
g64
NtRp1943
(dp1944
g67
(dp1945
g94
g95
ssg76
g1935
sg69
(lp1946
S':'
asbag62
(g83
g64
NtRp1947
(dp1948
g67
(dp1949
sg76
g1935
sg69
(lp1950
g62
(g63
g64
NtRp1951
(dp1952
g67
(dp1953
g75
I4
ssg76
g1947
sg69
(lp1954
S"<Values at 0x109376248: {'verbose': False, 'ip': '127.0.0.1', 'shutdown_timeout': 5, 'taskbar': False, 'nocron': False, 'pid_filename': 'httpserver.pid', 'maxthreads': None, 'softcron': False, 'server_name': 'robertdo-macbookpro', 'bpython': False, 'nogui': False, 'port': 8000, 'extcron': False, 'debuglevel': 30, 'test': None, 'folder': '/Users/robertdo/hiremeintech', 'config': '', 'import_models': False, 'winservice': '', 'shell': None, 'run': '', 'log_filename': 'httpserver.log', 'args': [''], 'socket_timeout': 5, 'ssl_ca_certificate': None, 'scheduler': None, 'profiler_filename': None, 'ssl_private_key': '', 'password': '<ask>', 'request_queue_size': 5, 'ssl_certificate': '', 'cronjob': False, 'numthreads': None, 'quiet': False, 'interfaces': None, 'minthreads': None, 'timeout': 10, 'plain': False, 'nobanner': False}>"
p1955
asbasbasbag62
(g78
g64
NtRp1956
(dp1957
g67
(dp1958
sg76
g1866
sg69
(lp1959
g62
(g83
g64
NtRp1960
(dp1961
g67
(dp1962
g87
g88
ssg76
g1956
sg69
(lp1963
g930
asbag62
(g83
g64
NtRp1964
(dp1965
g67
(dp1966
g94
g95
ssg76
g1956
sg69
(lp1967
S':'
asbag62
(g83
g64
NtRp1968
(dp1969
g67
(dp1970
sg76
g1956
sg69
(lp1971
g62
(g63
g64
NtRp1972
(dp1973
g67
(dp1974
g75
I4
ssg76
g1968
sg69
(lp1975
S'set([])'
p1976
asbasbasbag62
(g78
g64
NtRp1977
(dp1978
g67
(dp1979
sg76
g1866
sg69
(lp1980
g62
(g83
g64
NtRp1981
(dp1982
g67
(dp1983
g87
g88
ssg76
g1977
sg69
(lp1984
g952
asbag62
(g83
g64
NtRp1985
(dp1986
g67
(dp1987
g94
g95
ssg76
g1977
sg69
(lp1988
S':'
asbag62
(g83
g64
NtRp1989
(dp1990
g67
(dp1991
sg76
g1977
sg69
(lp1992
g62
(g63
g64
NtRp1993
(dp1994
g67
(dp1995
g75
I4
ssg76
g1989
sg69
(lp1996
g105
asbasbasbag62
(g78
g64
NtRp1997
(dp1998
g67
(dp1999
sg76
g1866
sg69
(lp2000
g62
(g83
g64
NtRp2001
(dp2002
g67
(dp2003
g87
g88
ssg76
g1997
sg69
(lp2004
g973
asbag62
(g83
g64
NtRp2005
(dp2006
g67
(dp2007
g94
g95
ssg76
g1997
sg69
(lp2008
S':'
asbag62
(g83
g64
NtRp2009
(dp2010
g67
(dp2011
sg76
g1997
sg69
(lp2012
g62
(g63
g64
NtRp2013
(dp2014
g67
(dp2015
g75
I4
ssg76
g2009
sg69
(lp2016
g986
asbasbasbag62
(g78
g64
NtRp2017
(dp2018
g67
(dp2019
sg76
g1866
sg69
(lp2020
g62
(g83
g64
NtRp2021
(dp2022
g67
(dp2023
g87
g88
ssg76
g2017
sg69
(lp2024
g1171
asbag62
(g83
g64
NtRp2025
(dp2026
g67
(dp2027
g94
g95
ssg76
g2017
sg69
(lp2028
S':'
asbag62
(g83
g64
NtRp2029
(dp2030
g67
(dp2031
sg76
g2017
sg69
(lp2032
g62
(g63
g64
NtRp2033
(dp2034
g67
(dp2035
g75
I4
ssg76
g2029
sg69
(lp2036
g105
asbasbasbag62
(g78
g64
NtRp2037
(dp2038
g67
(dp2039
sg76
g1866
sg69
(lp2040
g62
(g83
g64
NtRp2041
(dp2042
g67
(dp2043
g87
g88
ssg76
g2037
sg69
(lp2044
g1192
asbag62
(g83
g64
NtRp2045
(dp2046
g67
(dp2047
g94
g95
ssg76
g2037
sg69
(lp2048
S':'
asbag62
(g83
g64
NtRp2049
(dp2050
g67
(dp2051
sg76
g2037
sg69
(lp2052
g62
(g63
g64
NtRp2053
(dp2054
g67
(dp2055
g75
I4
ssg76
g2049
sg69
(lp2056
g105
asbasbasbag62
(g78
g64
NtRp2057
(dp2058
g67
(dp2059
sg76
g1866
sg69
(lp2060
g62
(g83
g64
NtRp2061
(dp2062
g67
(dp2063
g87
g88
ssg76
g2057
sg69
(lp2064
g1430
asbag62
(g83
g64
NtRp2065
(dp2066
g67
(dp2067
g94
g95
ssg76
g2057
sg69
(lp2068
S':'
asbag62
(g83
g64
NtRp2069
(dp2070
g67
(dp2071
sg76
g2057
sg69
(lp2072
g62
(g63
g64
NtRp2073
(dp2074
g67
(dp2075
g75
I4
ssg76
g2069
sg69
(lp2076
g1443
asbasbasbag62
(g78
g64
NtRp2077
(dp2078
g67
(dp2079
sg76
g1866
sg69
(lp2080
g62
(g83
g64
NtRp2081
(dp2082
g67
(dp2083
g87
g88
ssg76
g2077
sg69
(lp2084
g1473
asbag62
(g83
g64
NtRp2085
(dp2086
g67
(dp2087
g94
g95
ssg76
g2077
sg69
(lp2088
S':'
asbag62
(g83
g64
NtRp2089
(dp2090
g67
(dp2091
sg76
g2077
sg69
(lp2092
g62
(g63
g64
NtRp2093
(dp2094
g67
(dp2095
g75
I4
ssg76
g2089
sg69
(lp2096
g62
(g71
g64
NtRp2097
(dp2098
g67
(dp2099
g75
I3
ssg76
Nsg69
(lp2100
g62
(g78
g64
NtRp2101
(dp2102
g67
(dp2103
sg76
g2097
sg69
(lp2104
g62
(g83
g64
NtRp2105
(dp2106
g67
(dp2107
sg76
g2101
sg69
(lp2108
g62
(g63
g64
NtRp2109
(dp2110
g67
(dp2111
g75
I3
ssg76
g2105
sg69
(lp2112
S'1'
asbasbasbag62
(g78
g64
NtRp2113
(dp2114
g67
(dp2115
sg76
g2097
sg69
(lp2116
g62
(g83
g64
NtRp2117
(dp2118
g67
(dp2119
sg76
g2113
sg69
(lp2120
g62
(g63
g64
NtRp2121
(dp2122
g67
(dp2123
g75
I3
ssg76
g2117
sg69
(lp2124
S'99'
p2125
asbasbasbag62
(g78
g64
NtRp2126
(dp2127
g67
(dp2128
sg76
g2097
sg69
(lp2129
g62
(g83
g64
NtRp2130
(dp2131
g67
(dp2132
sg76
g2126
sg69
(lp2133
g62
(g63
g64
NtRp2134
(dp2135
g67
(dp2136
g75
I3
ssg76
g2130
sg69
(lp2137
S'7'
asbasbasbag62
(g78
g64
NtRp2138
(dp2139
g67
(dp2140
sg76
g2097
sg69
(lp2141
g62
(g83
g64
NtRp2142
(dp2143
g67
(dp2144
sg76
g2138
sg69
(lp2145
g62
(g63
g64
NtRp2146
(dp2147
g67
(dp2148
g75
I3
ssg76
g2142
sg69
(lp2149
S'datetime.datetime(2012, 3, 4, 22, 12, 8)'
p2150
asbasbasbag62
(g78
g64
NtRp2151
(dp2152
g67
(dp2153
sg76
g2097
sg69
(lp2154
g62
(g83
g64
NtRp2155
(dp2156
g67
(dp2157
sg76
g2151
sg69
(lp2158
g62
(g63
g64
NtRp2159
(dp2160
g67
(dp2161
g75
I3
ssg76
g2155
sg69
(lp2162
g1552
asbasbasbasbasbasbasbasbasbasbasbag62
(g78
g64
NtRp2163
(dp2164
g67
(dp2165
sg76
g72
sg69
(lp2166
g62
(g83
g64
NtRp2167
(dp2168
g67
(dp2169
g87
g88
ssg76
g2163
sg69
(lp2170
S'is_https'
p2171
asbag62
(g83
g64
NtRp2172
(dp2173
g67
(dp2174
g94
g95
ssg76
g2163
sg69
(lp2175
S':'
asbag62
(g83
g64
NtRp2176
(dp2177
g67
(dp2178
sg76
g2163
sg69
(lp2179
g62
(g63
g64
NtRp2180
(dp2181
g67
(dp2182
g75
I5
ssg76
g2176
sg69
(lp2183
g105
asbasbasbag62
(g78
g64
NtRp2184
(dp2185
g67
(dp2186
sg76
g72
sg69
(lp2187
g62
(g83
g64
NtRp2188
(dp2189
g67
(dp2190
g87
g88
ssg76
g2184
sg69
(lp2191
S'is_local'
p2192
asbag62
(g83
g64
NtRp2193
(dp2194
g67
(dp2195
g94
g95
ssg76
g2184
sg69
(lp2196
S':'
asbag62
(g83
g64
NtRp2197
(dp2198
g67
(dp2199
sg76
g2184
sg69
(lp2200
g62
(g63
g64
NtRp2201
(dp2202
g67
(dp2203
g75
I5
ssg76
g2197
sg69
(lp2204
g1661
asbasbasbag62
(g78
g64
NtRp2205
(dp2206
g67
(dp2207
sg76
g72
sg69
(lp2208
g62
(g83
g64
NtRp2209
(dp2210
g67
(dp2211
g87
g88
ssg76
g2205
sg69
(lp2212
S'is_restful'
p2213
asbag62
(g83
g64
NtRp2214
(dp2215
g67
(dp2216
g94
g95
ssg76
g2205
sg69
(lp2217
S':'
asbag62
(g83
g64
NtRp2218
(dp2219
g67
(dp2220
sg76
g2205
sg69
(lp2221
g62
(g63
g64
NtRp2222
(dp2223
g67
(dp2224
g75
I5
ssg76
g2218
sg69
(lp2225
g105
asbasbasbag62
(g78
g64
NtRp2226
(dp2227
g67
(dp2228
sg76
g72
sg69
(lp2229
g62
(g83
g64
NtRp2230
(dp2231
g67
(dp2232
g87
g88
ssg76
g2226
sg69
(lp2233
S'now'
p2234
asbag62
(g83
g64
NtRp2235
(dp2236
g67
(dp2237
g94
g95
ssg76
g2226
sg69
(lp2238
S':'
asbag62
(g83
g64
NtRp2239
(dp2240
g67
(dp2241
sg76
g2226
sg69
(lp2242
g62
(g63
g64
NtRp2243
(dp2244
g67
(dp2245
g75
I5
ssg76
g2239
sg69
(lp2246
S'datetime.datetime(2012, 3, 18, 16, 0, 27, 194265)'
p2247
asbasbasbag62
(g78
g64
NtRp2248
(dp2249
g67
(dp2250
sg76
g72
sg69
(lp2251
g62
(g83
g64
NtRp2252
(dp2253
g67
(dp2254
g87
g88
ssg76
g2248
sg69
(lp2255
S'post_vars'
p2256
asbag62
(g83
g64
NtRp2257
(dp2258
g67
(dp2259
g94
g95
ssg76
g2248
sg69
(lp2260
S':'
asbag62
(g83
g64
NtRp2261
(dp2262
g67
(dp2263
sg76
g2248
sg69
(lp2264
g62
(g63
g64
NtRp2265
(dp2266
g67
(dp2267
g75
I5
ssg76
g2261
sg69
(lp2268
g62
(g71
g64
NtRp2269
(dp2270
g67
(dp2271
g75
I4
ssg76
Nsg69
(lp2272
sbasbasbasbag62
(g78
g64
NtRp2273
(dp2274
g67
(dp2275
sg76
g72
sg69
(lp2276
g62
(g83
g64
NtRp2277
(dp2278
g67
(dp2279
g87
g88
ssg76
g2273
sg69
(lp2280
S'url'
p2281
asbag62
(g83
g64
NtRp2282
(dp2283
g67
(dp2284
g94
g95
ssg76
g2273
sg69
(lp2285
S':'
asbag62
(g83
g64
NtRp2286
(dp2287
g67
(dp2288
sg76
g2273
sg69
(lp2289
g62
(g63
g64
NtRp2290
(dp2291
g67
(dp2292
g75
I5
ssg76
g2286
sg69
(lp2293
S'/hiremeintech/default/index'
p2294
asbasbasbag62
(g78
g64
NtRp2295
(dp2296
g67
(dp2297
sg76
g72
sg69
(lp2298
g62
(g83
g64
NtRp2299
(dp2300
g67
(dp2301
g87
g88
ssg76
g2295
sg69
(lp2302
S'utcnow'
p2303
asbag62
(g83
g64
NtRp2304
(dp2305
g67
(dp2306
g94
g95
ssg76
g2295
sg69
(lp2307
S':'
asbag62
(g83
g64
NtRp2308
(dp2309
g67
(dp2310
sg76
g2295
sg69
(lp2311
g62
(g63
g64
NtRp2312
(dp2313
g67
(dp2314
g75
I5
ssg76
g2308
sg69
(lp2315
S'datetime.datetime(2012, 3, 18, 23, 0, 27, 194278)'
p2316
asbasbasbag62
(g78
g64
NtRp2317
(dp2318
g67
(dp2319
sg76
g72
sg69
(lp2320
g62
(g83
g64
NtRp2321
(dp2322
g67
(dp2323
g87
g88
ssg76
g2317
sg69
(lp2324
S'uuid'
p2325
asbag62
(g83
g64
NtRp2326
(dp2327
g67
(dp2328
g94
g95
ssg76
g2317
sg69
(lp2329
S':'
asbag62
(g83
g64
NtRp2330
(dp2331
g67
(dp2332
sg76
g2317
sg69
(lp2333
g62
(g63
g64
NtRp2334
(dp2335
g67
(dp2336
g75
I5
ssg76
g2330
sg69
(lp2337
S'hiremeintech/127.0.0.1.2012-03-18.16-00-27.715d142c-5985-44df-b0ed-b3a1ac575016'
p2338
asbasbasbag62
(g78
g64
NtRp2339
(dp2340
g67
(dp2341
sg76
g72
sg69
(lp2342
g62
(g83
g64
NtRp2343
(dp2344
g67
(dp2345
g87
g88
ssg76
g2339
sg69
(lp2346
S'vars'
p2347
asbag62
(g83
g64
NtRp2348
(dp2349
g67
(dp2350
g94
g95
ssg76
g2339
sg69
(lp2351
S':'
asbag62
(g83
g64
NtRp2352
(dp2353
g67
(dp2354
sg76
g2339
sg69
(lp2355
g62
(g63
g64
NtRp2356
(dp2357
g67
(dp2358
g75
I5
ssg76
g2352
sg69
(lp2359
g62
(g71
g64
NtRp2360
(dp2361
g67
(dp2362
g75
I4
ssg76
Nsg69
(lp2363
sbasbasbasbag62
(g78
g64
NtRp2364
(dp2365
g67
(dp2366
sg76
g72
sg69
(lp2367
g62
(g83
g64
NtRp2368
(dp2369
g67
(dp2370
g87
g88
ssg76
g2364
sg69
(lp2371
S'wsgi'
p2372
asbag62
(g83
g64
NtRp2373
(dp2374
g67
(dp2375
g94
g95
ssg76
g2364
sg69
(lp2376
S':'
asbag62
(g83
g64
NtRp2377
(dp2378
g67
(dp2379
sg76
g2364
sg69
(lp2380
g62
(g63
g64
NtRp2381
(dp2382
g67
(dp2383
g75
I5
ssg76
g2377
sg69
(lp2384
g62
(g71
g64
NtRp2385
(dp2386
g67
(dp2387
g75
I4
ssg76
Nsg69
(lp2388
g62
(g78
g64
NtRp2389
(dp2390
g67
(dp2391
sg76
g2385
sg69
(lp2392
g62
(g83
g64
NtRp2393
(dp2394
g67
(dp2395
g87
g88
ssg76
g2389
sg69
(lp2396
S'environ'
p2397
asbag62
(g83
g64
NtRp2398
(dp2399
g67
(dp2400
g94
g95
ssg76
g2389
sg69
(lp2401
S':'
asbag62
(g83
g64
NtRp2402
(dp2403
g67
(dp2404
sg76
g2389
sg69
(lp2405
g62
(g63
g64
NtRp2406
(dp2407
g67
(dp2408
g75
I4
ssg76
g2402
sg69
(lp2409
g62
(g71
g64
NtRp2410
(dp2411
g67
(dp2412
g75
I3
ssg76
Nsg69
(lp2413
g62
(g78
g64
NtRp2414
(dp2415
g67
(dp2416
sg76
g2410
sg69
(lp2417
g62
(g83
g64
NtRp2418
(dp2419
g67
(dp2420
g87
g88
ssg76
g2414
sg69
(lp2421
S'HTTP_ACCEPT'
p2422
asbag62
(g83
g64
NtRp2423
(dp2424
g67
(dp2425
g94
g95
ssg76
g2414
sg69
(lp2426
S':'
asbag62
(g83
g64
NtRp2427
(dp2428
g67
(dp2429
sg76
g2414
sg69
(lp2430
g62
(g63
g64
NtRp2431
(dp2432
g67
(dp2433
g75
I3
ssg76
g2427
sg69
(lp2434
g1008
asbasbasbag62
(g78
g64
NtRp2435
(dp2436
g67
(dp2437
sg76
g2410
sg69
(lp2438
g62
(g83
g64
NtRp2439
(dp2440
g67
(dp2441
g87
g88
ssg76
g2435
sg69
(lp2442
S'HTTP_ACCEPT_CHARSET'
p2443
asbag62
(g83
g64
NtRp2444
(dp2445
g67
(dp2446
g94
g95
ssg76
g2435
sg69
(lp2447
S':'
asbag62
(g83
g64
NtRp2448
(dp2449
g67
(dp2450
sg76
g2435
sg69
(lp2451
g62
(g63
g64
NtRp2452
(dp2453
g67
(dp2454
g75
I3
ssg76
g2448
sg69
(lp2455
g1030
asbasbasbag62
(g78
g64
NtRp2456
(dp2457
g67
(dp2458
sg76
g2410
sg69
(lp2459
g62
(g83
g64
NtRp2460
(dp2461
g67
(dp2462
g87
g88
ssg76
g2456
sg69
(lp2463
S'HTTP_ACCEPT_ENCODING'
p2464
asbag62
(g83
g64
NtRp2465
(dp2466
g67
(dp2467
g94
g95
ssg76
g2456
sg69
(lp2468
S':'
asbag62
(g83
g64
NtRp2469
(dp2470
g67
(dp2471
sg76
g2456
sg69
(lp2472
g62
(g63
g64
NtRp2473
(dp2474
g67
(dp2475
g75
I3
ssg76
g2469
sg69
(lp2476
g1052
asbasbasbag62
(g78
g64
NtRp2477
(dp2478
g67
(dp2479
sg76
g2410
sg69
(lp2480
g62
(g83
g64
NtRp2481
(dp2482
g67
(dp2483
g87
g88
ssg76
g2477
sg69
(lp2484
S'HTTP_ACCEPT_LANGUAGE'
p2485
asbag62
(g83
g64
NtRp2486
(dp2487
g67
(dp2488
g94
g95
ssg76
g2477
sg69
(lp2489
S':'
asbag62
(g83
g64
NtRp2490
(dp2491
g67
(dp2492
sg76
g2477
sg69
(lp2493
g62
(g63
g64
NtRp2494
(dp2495
g67
(dp2496
g75
I3
ssg76
g2490
sg69
(lp2497
g1074
asbasbasbag62
(g78
g64
NtRp2498
(dp2499
g67
(dp2500
sg76
g2410
sg69
(lp2501
g62
(g83
g64
NtRp2502
(dp2503
g67
(dp2504
g87
g88
ssg76
g2498
sg69
(lp2505
S'HTTP_CONNECTION'
p2506
asbag62
(g83
g64
NtRp2507
(dp2508
g67
(dp2509
g94
g95
ssg76
g2498
sg69
(lp2510
S':'
asbag62
(g83
g64
NtRp2511
(dp2512
g67
(dp2513
sg76
g2498
sg69
(lp2514
g62
(g63
g64
NtRp2515
(dp2516
g67
(dp2517
g75
I3
ssg76
g2511
sg69
(lp2518
g1096
asbasbasbag62
(g78
g64
NtRp2519
(dp2520
g67
(dp2521
sg76
g2410
sg69
(lp2522
g62
(g83
g64
NtRp2523
(dp2524
g67
(dp2525
g87
g88
ssg76
g2519
sg69
(lp2526
S'HTTP_COOKIE'
p2527
asbag62
(g83
g64
NtRp2528
(dp2529
g67
(dp2530
g94
g95
ssg76
g2519
sg69
(lp2531
S':'
asbag62
(g83
g64
NtRp2532
(dp2533
g67
(dp2534
sg76
g2519
sg69
(lp2535
g62
(g63
g64
NtRp2536
(dp2537
g67
(dp2538
g75
I3
ssg76
g2532
sg69
(lp2539
g1118
asbasbasbag62
(g78
g64
NtRp2540
(dp2541
g67
(dp2542
sg76
g2410
sg69
(lp2543
g62
(g83
g64
NtRp2544
(dp2545
g67
(dp2546
g87
g88
ssg76
g2540
sg69
(lp2547
S'HTTP_HOST'
p2548
asbag62
(g83
g64
NtRp2549
(dp2550
g67
(dp2551
g94
g95
ssg76
g2540
sg69
(lp2552
S':'
asbag62
(g83
g64
NtRp2553
(dp2554
g67
(dp2555
sg76
g2540
sg69
(lp2556
g62
(g63
g64
NtRp2557
(dp2558
g67
(dp2559
g75
I3
ssg76
g2553
sg69
(lp2560
g1140
asbasbasbag62
(g78
g64
NtRp2561
(dp2562
g67
(dp2563
sg76
g2410
sg69
(lp2564
g62
(g83
g64
NtRp2565
(dp2566
g67
(dp2567
g87
g88
ssg76
g2561
sg69
(lp2568
S'HTTP_USER_AGENT'
p2569
asbag62
(g83
g64
NtRp2570
(dp2571
g67
(dp2572
g94
g95
ssg76
g2561
sg69
(lp2573
S':'
asbag62
(g83
g64
NtRp2574
(dp2575
g67
(dp2576
sg76
g2561
sg69
(lp2577
g62
(g63
g64
NtRp2578
(dp2579
g67
(dp2580
g75
I3
ssg76
g2574
sg69
(lp2581
g1162
asbasbasbag62
(g78
g64
NtRp2582
(dp2583
g67
(dp2584
sg76
g2410
sg69
(lp2585
g62
(g83
g64
NtRp2586
(dp2587
g67
(dp2588
g87
g88
ssg76
g2582
sg69
(lp2589
S'PATH_INFO'
p2590
asbag62
(g83
g64
NtRp2591
(dp2592
g67
(dp2593
g94
g95
ssg76
g2582
sg69
(lp2594
S':'
asbag62
(g83
g64
NtRp2595
(dp2596
g67
(dp2597
sg76
g2582
sg69
(lp2598
g62
(g63
g64
NtRp2599
(dp2600
g67
(dp2601
g75
I3
ssg76
g2595
sg69
(lp2602
g1226
asbasbasbag62
(g78
g64
NtRp2603
(dp2604
g67
(dp2605
sg76
g2410
sg69
(lp2606
g62
(g83
g64
NtRp2607
(dp2608
g67
(dp2609
g87
g88
ssg76
g2603
sg69
(lp2610
S'QUERY_STRING'
p2611
asbag62
(g83
g64
NtRp2612
(dp2613
g67
(dp2614
g94
g95
ssg76
g2603
sg69
(lp2615
S':'
asbag62
(g83
g64
NtRp2616
(dp2617
g67
(dp2618
sg76
g2603
sg69
(lp2619
g62
(g63
g64
NtRp2620
(dp2621
g67
(dp2622
g75
I3
ssg76
g2616
sg69
(lp2623
S''
asbasbasbag62
(g78
g64
NtRp2624
(dp2625
g67
(dp2626
sg76
g2410
sg69
(lp2627
g62
(g83
g64
NtRp2628
(dp2629
g67
(dp2630
g87
g88
ssg76
g2624
sg69
(lp2631
S'REMOTE_ADDR'
p2632
asbag62
(g83
g64
NtRp2633
(dp2634
g67
(dp2635
g94
g95
ssg76
g2624
sg69
(lp2636
S':'
asbag62
(g83
g64
NtRp2637
(dp2638
g67
(dp2639
sg76
g2624
sg69
(lp2640
g62
(g63
g64
NtRp2641
(dp2642
g67
(dp2643
g75
I3
ssg76
g2637
sg69
(lp2644
g195
asbasbasbag62
(g78
g64
NtRp2645
(dp2646
g67
(dp2647
sg76
g2410
sg69
(lp2648
g62
(g83
g64
NtRp2649
(dp2650
g67
(dp2651
g87
g88
ssg76
g2645
sg69
(lp2652
S'REMOTE_PORT'
p2653
asbag62
(g83
g64
NtRp2654
(dp2655
g67
(dp2656
g94
g95
ssg76
g2645
sg69
(lp2657
S':'
asbag62
(g83
g64
NtRp2658
(dp2659
g67
(dp2660
sg76
g2645
sg69
(lp2661
g62
(g63
g64
NtRp2662
(dp2663
g67
(dp2664
g75
I3
ssg76
g2658
sg69
(lp2665
g1290
asbasbasbag62
(g78
g64
NtRp2666
(dp2667
g67
(dp2668
sg76
g2410
sg69
(lp2669
g62
(g83
g64
NtRp2670
(dp2671
g67
(dp2672
g87
g88
ssg76
g2666
sg69
(lp2673
S'REQUEST_METHOD'
p2674
asbag62
(g83
g64
NtRp2675
(dp2676
g67
(dp2677
g94
g95
ssg76
g2666
sg69
(lp2678
S':'
asbag62
(g83
g64
NtRp2679
(dp2680
g67
(dp2681
sg76
g2666
sg69
(lp2682
g62
(g63
g64
NtRp2683
(dp2684
g67
(dp2685
g75
I3
ssg76
g2679
sg69
(lp2686
g1312
asbasbasbag62
(g78
g64
NtRp2687
(dp2688
g67
(dp2689
sg76
g2410
sg69
(lp2690
g62
(g83
g64
NtRp2691
(dp2692
g67
(dp2693
g87
g88
ssg76
g2687
sg69
(lp2694
S'SCRIPT_NAME'
p2695
asbag62
(g83
g64
NtRp2696
(dp2697
g67
(dp2698
g94
g95
ssg76
g2687
sg69
(lp2699
S':'
asbag62
(g83
g64
NtRp2700
(dp2701
g67
(dp2702
sg76
g2687
sg69
(lp2703
g62
(g63
g64
NtRp2704
(dp2705
g67
(dp2706
g75
I3
ssg76
g2700
sg69
(lp2707
S''
asbasbasbag62
(g78
g64
NtRp2708
(dp2709
g67
(dp2710
sg76
g2410
sg69
(lp2711
g62
(g83
g64
NtRp2712
(dp2713
g67
(dp2714
g87
g88
ssg76
g2708
sg69
(lp2715
S'SERVER_NAME'
p2716
asbag62
(g83
g64
NtRp2717
(dp2718
g67
(dp2719
g94
g95
ssg76
g2708
sg69
(lp2720
S':'
asbag62
(g83
g64
NtRp2721
(dp2722
g67
(dp2723
sg76
g2708
sg69
(lp2724
g62
(g63
g64
NtRp2725
(dp2726
g67
(dp2727
g75
I3
ssg76
g2721
sg69
(lp2728
g1355
asbasbasbag62
(g78
g64
NtRp2729
(dp2730
g67
(dp2731
sg76
g2410
sg69
(lp2732
g62
(g83
g64
NtRp2733
(dp2734
g67
(dp2735
g87
g88
ssg76
g2729
sg69
(lp2736
S'SERVER_PORT'
p2737
asbag62
(g83
g64
NtRp2738
(dp2739
g67
(dp2740
g94
g95
ssg76
g2729
sg69
(lp2741
S':'
asbag62
(g83
g64
NtRp2742
(dp2743
g67
(dp2744
sg76
g2729
sg69
(lp2745
g62
(g63
g64
NtRp2746
(dp2747
g67
(dp2748
g75
I3
ssg76
g2742
sg69
(lp2749
g1377
asbasbasbag62
(g78
g64
NtRp2750
(dp2751
g67
(dp2752
sg76
g2410
sg69
(lp2753
g62
(g83
g64
NtRp2754
(dp2755
g67
(dp2756
g87
g88
ssg76
g2750
sg69
(lp2757
S'SERVER_PROTOCOL'
p2758
asbag62
(g83
g64
NtRp2759
(dp2760
g67
(dp2761
g94
g95
ssg76
g2750
sg69
(lp2762
S':'
asbag62
(g83
g64
NtRp2763
(dp2764
g67
(dp2765
sg76
g2750
sg69
(lp2766
g62
(g63
g64
NtRp2767
(dp2768
g67
(dp2769
g75
I3
ssg76
g2763
sg69
(lp2770
g1399
asbasbasbag62
(g78
g64
NtRp2771
(dp2772
g67
(dp2773
sg76
g2410
sg69
(lp2774
g62
(g83
g64
NtRp2775
(dp2776
g67
(dp2777
g87
g88
ssg76
g2771
sg69
(lp2778
S'SERVER_SOFTWARE'
p2779
asbag62
(g83
g64
NtRp2780
(dp2781
g67
(dp2782
g94
g95
ssg76
g2771
sg69
(lp2783
S':'
asbag62
(g83
g64
NtRp2784
(dp2785
g67
(dp2786
sg76
g2771
sg69
(lp2787
g62
(g63
g64
NtRp2788
(dp2789
g67
(dp2790
g75
I3
ssg76
g2784
sg69
(lp2791
g1421
asbasbasbag62
(g78
g64
NtRp2792
(dp2793
g67
(dp2794
sg76
g2410
sg69
(lp2795
g62
(g83
g64
NtRp2796
(dp2797
g67
(dp2798
g87
g88
ssg76
g2792
sg69
(lp2799
S'wsgi.errors'
p2800
asbag62
(g83
g64
NtRp2801
(dp2802
g67
(dp2803
g94
g95
ssg76
g2792
sg69
(lp2804
S':'
asbag62
(g83
g64
NtRp2805
(dp2806
g67
(dp2807
sg76
g2792
sg69
(lp2808
g62
(g63
g64
NtRp2809
(dp2810
g67
(dp2811
g75
I3
ssg76
g2805
sg69
(lp2812
S"<open file '<stderr>', mode 'w' at 0x108918270>"
p2813
asbasbasbag62
(g78
g64
NtRp2814
(dp2815
g67
(dp2816
sg76
g2410
sg69
(lp2817
g62
(g83
g64
NtRp2818
(dp2819
g67
(dp2820
g87
g88
ssg76
g2814
sg69
(lp2821
S'wsgi.file_wrapper'
p2822
asbag62
(g83
g64
NtRp2823
(dp2824
g67
(dp2825
g94
g95
ssg76
g2814
sg69
(lp2826
S':'
asbag62
(g83
g64
NtRp2827
(dp2828
g67
(dp2829
sg76
g2814
sg69
(lp2830
g62
(g63
g64
NtRp2831
(dp2832
g67
(dp2833
g75
I3
ssg76
g2827
sg69
(lp2834
S'<class wsgiref.util.FileWrapper at 0x10928e258>'
p2835
asbasbasbag62
(g78
g64
NtRp2836
(dp2837
g67
(dp2838
sg76
g2410
sg69
(lp2839
g62
(g83
g64
NtRp2840
(dp2841
g67
(dp2842
g87
g88
ssg76
g2836
sg69
(lp2843
S'wsgi.input'
p2844
asbag62
(g83
g64
NtRp2845
(dp2846
g67
(dp2847
g94
g95
ssg76
g2836
sg69
(lp2848
S':'
asbag62
(g83
g64
NtRp2849
(dp2850
g67
(dp2851
sg76
g2836
sg69
(lp2852
g62
(g63
g64
NtRp2853
(dp2854
g67
(dp2855
g75
I3
ssg76
g2849
sg69
(lp2856
S'<cStringIO.StringO object at 0x10e45bab0>'
p2857
asbasbasbag62
(g78
g64
NtRp2858
(dp2859
g67
(dp2860
sg76
g2410
sg69
(lp2861
g62
(g83
g64
NtRp2862
(dp2863
g67
(dp2864
g87
g88
ssg76
g2858
sg69
(lp2865
S'wsgi.multiprocess'
p2866
asbag62
(g83
g64
NtRp2867
(dp2868
g67
(dp2869
g94
g95
ssg76
g2858
sg69
(lp2870
S':'
asbag62
(g83
g64
NtRp2871
(dp2872
g67
(dp2873
sg76
g2858
sg69
(lp2874
g62
(g63
g64
NtRp2875
(dp2876
g67
(dp2877
g75
I3
ssg76
g2871
sg69
(lp2878
g105
asbasbasbag62
(g78
g64
NtRp2879
(dp2880
g67
(dp2881
sg76
g2410
sg69
(lp2882
g62
(g83
g64
NtRp2883
(dp2884
g67
(dp2885
g87
g88
ssg76
g2879
sg69
(lp2886
S'wsgi.multithread'
p2887
asbag62
(g83
g64
NtRp2888
(dp2889
g67
(dp2890
g94
g95
ssg76
g2879
sg69
(lp2891
S':'
asbag62
(g83
g64
NtRp2892
(dp2893
g67
(dp2894
sg76
g2879
sg69
(lp2895
g62
(g63
g64
NtRp2896
(dp2897
g67
(dp2898
g75
I3
ssg76
g2892
sg69
(lp2899
g1661
asbasbasbag62
(g78
g64
NtRp2900
(dp2901
g67
(dp2902
sg76
g2410
sg69
(lp2903
g62
(g83
g64
NtRp2904
(dp2905
g67
(dp2906
g87
g88
ssg76
g2900
sg69
(lp2907
S'wsgi.run_once'
p2908
asbag62
(g83
g64
NtRp2909
(dp2910
g67
(dp2911
g94
g95
ssg76
g2900
sg69
(lp2912
S':'
asbag62
(g83
g64
NtRp2913
(dp2914
g67
(dp2915
sg76
g2900
sg69
(lp2916
g62
(g63
g64
NtRp2917
(dp2918
g67
(dp2919
g75
I3
ssg76
g2913
sg69
(lp2920
g105
asbasbasbag62
(g78
g64
NtRp2921
(dp2922
g67
(dp2923
sg76
g2410
sg69
(lp2924
g62
(g83
g64
NtRp2925
(dp2926
g67
(dp2927
g87
g88
ssg76
g2921
sg69
(lp2928
S'wsgi.url_scheme'
p2929
asbag62
(g83
g64
NtRp2930
(dp2931
g67
(dp2932
g94
g95
ssg76
g2921
sg69
(lp2933
S':'
asbag62
(g83
g64
NtRp2934
(dp2935
g67
(dp2936
sg76
g2921
sg69
(lp2937
g62
(g63
g64
NtRp2938
(dp2939
g67
(dp2940
g75
I3
ssg76
g2934
sg69
(lp2941
g1704
asbasbasbag62
(g78
g64
NtRp2942
(dp2943
g67
(dp2944
sg76
g2410
sg69
(lp2945
g62
(g83
g64
NtRp2946
(dp2947
g67
(dp2948
g87
g88
ssg76
g2942
sg69
(lp2949
S'wsgi.version'
p2950
asbag62
(g83
g64
NtRp2951
(dp2952
g67
(dp2953
g94
g95
ssg76
g2942
sg69
(lp2954
S':'
asbag62
(g83
g64
NtRp2955
(dp2956
g67
(dp2957
sg76
g2942
sg69
(lp2958
g62
(g63
g64
NtRp2959
(dp2960
g67
(dp2961
g75
I3
ssg76
g2955
sg69
(lp2962
S'1'
asbasbasbasbasbasbasbasbasbasbasbasbasbsS'frames'
p2963
(lp2964
(dp2965
S'file'
p2966
S'/Users/robertdo/hiremeintech/gluon/restricted.py'
p2967
sS'dump'
p2968
(dp2969
S'environment'
p2970
S"{'A': <class 'gluon.html.A'>, 'Auth': <class 'gluon.tools.Auth'>, 'B': <class 'gluon.html.B'>, 'BEAUTIFY': <class 'gluon.html.BEAUTIFY'>, 'BODY': <class 'gluon.html.BODY'>, 'BR': <class 'gluon.html.BR'>, 'BUTTON': <class 'gluon.html.BUTTON'>, 'CAT': <class 'gluon.html.CAT'>, 'CENTER': <class 'gluon.html.CENTER'>, 'CLEANUP': <class 'gluon.validators.CLEANUP'>, ...}"
p2971
sS'ccode'
p2972
S'<code object <module> at 0x10de160b0, file "/Use...applications/hiremeintech/models/db.py", line 12>'
p2973
ssS'lnum'
p2974
I205
sS'lines'
p2975
(dp2976
I200
S'    try:'
p2977
sI201
S'        if type(code) == types.CodeType:'
p2978
sI202
S'            ccode = code'
p2979
sI203
S'        else:'
p2980
sI204
S'            ccode = compile2(code,layer)'
p2981
sI205
S'        exec ccode in environment'
p2982
sI206
S'    except HTTP:'
p2983
sI207
S'        raise'
p2984
sI208
S'    except RestrictedError:'
p2985
sI209
S'        # do not encapsulate (obfuscate) the original RestrictedError'
p2986
ssS'call'
p2987
S'(code="# -*- coding: utf-8 -*-\\n\\n#######################...obs.import_from_csv_file(open(\'data.csv\', \'r\'))\\n\\n", environment={\'A\': <class \'gluon.html.A\'>, \'Auth\': <class \'gluon.tools.Auth\'>, \'B\': <class \'gluon.html.B\'>, \'BEAUTIFY\': <class \'gluon.html.BEAUTIFY\'>, \'BODY\': <class \'gluon.html.BODY\'>, \'BR\': <class \'gluon.html.BR\'>, \'BUTTON\': <class \'gluon.html.BUTTON\'>, \'CAT\': <class \'gluon.html.CAT\'>, \'CENTER\': <class \'gluon.html.CENTER\'>, \'CLEANUP\': <class \'gluon.validators.CLEANUP\'>, ...}, layer=\'/Users/robertdo/hiremeintech/applications/hiremeintech/models/db.py\')'
p2988
sS'func'
p2989
S'restricted'
p2990
sa(dp2991
g2966
S'/Users/robertdo/hiremeintech/applications/hiremeintech/models/db.py'
p2992
sg2968
(dp2993
S'db.jobs.import_from_csv_file'
p2994
S"<bound method Table.import_from_csv_file of <Tab...'_id': <gluon.dal.Field object at 0x10e8fdd90>}>>"
p2995
sS'db.jobs'
p2996
S"<Table {'subcategory': <gluon.dal.Field object a... '_id': <gluon.dal.Field object at 0x10e8fdd90>}>"
p2997
sS'db'
p2998
S"<DAL {'auth_event': <Table {'origin': <gluon.dal...key': <gluon.dal.Field object at 0x10e41fb90>}>}>"
p2999
sS'builtinopen'
p3000
S'<built-in function open>'
p3001
ssg2974
I129
sg2975
(dp3002
I128
S''
sI129
S"db.jobs.import_from_csv_file(open('data.csv', 'r'))"
p3003
sI130
S''
sI121
S''
sI122
S"db.define_table('jobs',"
p3004
sI123
S"    Field('title', type='string'),"
p3005
sI124
S"    Field('category', type='string'),"
p3006
sI125
S"    Field('subcategory', type='string'),"
p3007
sI126
S"    Field('location', type='string'),"
p3008
sI127
S"    Field('content', type='string'))"
p3009
ssg2987
S'()'
p3010
sg2989
S'<module>'
p3011
sasS'pyver'
p3012
S'Python 2.7.1: /usr/bin/python'
p3013
sS'session'
p3014
g62
(g63
g64
NtRp3015
(dp3016
g67
(dp3017
sg69
(lp3018
g62
(g71
g64
NtRp3019
(dp3020
g67
(dp3021
g75
I5
ssg76
Nsg69
(lp3022
g62
(g78
g64
NtRp3023
(dp3024
g67
(dp3025
sg76
g3019
sg69
(lp3026
g62
(g83
g64
NtRp3027
(dp3028
g67
(dp3029
g87
g88
ssg76
g3023
sg69
(lp3030
S'last_query'
p3031
asbag62
(g83
g64
NtRp3032
(dp3033
g67
(dp3034
g94
g95
ssg76
g3023
sg69
(lp3035
S':'
asbag62
(g83
g64
NtRp3036
(dp3037
g67
(dp3038
sg76
g3023
sg69
(lp3039
g62
(g63
g64
NtRp3040
(dp3041
g67
(dp3042
g75
I5
ssg76
g3036
sg69
(lp3043
S'db.jobs.id>0'
p3044
asbasbasbasbasbsS'etype'
p3045
S"<type 'exceptions.IOError'>"
p3046
sS'date'
p3047
S'Sun Mar 18 16:00:27 2012'
p3048
sS'response'
p3049
g62
(g63
g64
NtRp3050
(dp3051
g67
(dp3052
sg69
(lp3053
g62
(g71
g64
NtRp3054
(dp3055
g67
(dp3056
g75
I5
ssg76
Nsg69
(lp3057
g62
(g78
g64
NtRp3058
(dp3059
g67
(dp3060
sg76
g3054
sg69
(lp3061
g62
(g83
g64
NtRp3062
(dp3063
g67
(dp3064
g87
g88
ssg76
g3058
sg69
(lp3065
g160
asbag62
(g83
g64
NtRp3066
(dp3067
g67
(dp3068
g94
g95
ssg76
g3058
sg69
(lp3069
S':'
asbag62
(g83
g64
NtRp3070
(dp3071
g67
(dp3072
sg76
g3058
sg69
(lp3073
g62
(g63
g64
NtRp3074
(dp3075
g67
(dp3076
g75
I5
ssg76
g3070
sg69
(lp3077
S'<cStringIO.StringO object at 0x10e45b960>'
p3078
asbasbasbag62
(g78
g64
NtRp3079
(dp3080
g67
(dp3081
sg76
g3054
sg69
(lp3082
g62
(g83
g64
NtRp3083
(dp3084
g67
(dp3085
g87
g88
ssg76
g3079
sg69
(lp3086
g226
asbag62
(g83
g64
NtRp3087
(dp3088
g67
(dp3089
g94
g95
ssg76
g3079
sg69
(lp3090
S':'
asbag62
(g83
g64
NtRp3091
(dp3092
g67
(dp3093
sg76
g3079
sg69
(lp3094
g62
(g63
g64
NtRp3095
(dp3096
g67
(dp3097
g75
I5
ssg76
g3091
sg69
(lp3098
g62
(g71
g64
NtRp3099
(dp3100
g67
(dp3101
g75
I4
ssg76
Nsg69
(lp3102
g62
(g78
g64
NtRp3103
(dp3104
g67
(dp3105
sg76
g3099
sg69
(lp3106
g62
(g83
g64
NtRp3107
(dp3108
g67
(dp3109
g87
g88
ssg76
g3103
sg69
(lp3110
S'session_id_hiremeintech'
p3111
asbag62
(g83
g64
NtRp3112
(dp3113
g67
(dp3114
g94
g95
ssg76
g3103
sg69
(lp3115
S':'
asbag62
(g83
g64
NtRp3116
(dp3117
g67
(dp3118
sg76
g3103
sg69
(lp3119
g62
(g63
g64
NtRp3120
(dp3121
g67
(dp3122
g75
I4
ssg76
g3116
sg69
(lp3123
g62
(g71
g64
NtRp3124
(dp3125
g67
(dp3126
g75
I3
ssg76
Nsg69
(lp3127
g62
(g78
g64
NtRp3128
(dp3129
g67
(dp3130
sg76
g3124
sg69
(lp3131
g62
(g83
g64
NtRp3132
(dp3133
g67
(dp3134
g87
g88
ssg76
g3128
sg69
(lp3135
g276
asbag62
(g83
g64
NtRp3136
(dp3137
g67
(dp3138
g94
g95
ssg76
g3128
sg69
(lp3139
S':'
asbag62
(g83
g64
NtRp3140
(dp3141
g67
(dp3142
sg76
g3128
sg69
(lp3143
g62
(g63
g64
NtRp3144
(dp3145
g67
(dp3146
g75
I3
ssg76
g3140
sg69
(lp3147
S''
asbasbasbag62
(g78
g64
NtRp3148
(dp3149
g67
(dp3150
sg76
g3124
sg69
(lp3151
g62
(g83
g64
NtRp3152
(dp3153
g67
(dp3154
g87
g88
ssg76
g3148
sg69
(lp3155
g297
asbag62
(g83
g64
NtRp3156
(dp3157
g67
(dp3158
g94
g95
ssg76
g3148
sg69
(lp3159
S':'
asbag62
(g83
g64
NtRp3160
(dp3161
g67
(dp3162
sg76
g3148
sg69
(lp3163
g62
(g63
g64
NtRp3164
(dp3165
g67
(dp3166
g75
I3
ssg76
g3160
sg69
(lp3167
S''
asbasbasbag62
(g78
g64
NtRp3168
(dp3169
g67
(dp3170
sg76
g3124
sg69
(lp3171
g62
(g83
g64
NtRp3172
(dp3173
g67
(dp3174
g87
g88
ssg76
g3168
sg69
(lp3175
g318
asbag62
(g83
g64
NtRp3176
(dp3177
g67
(dp3178
g94
g95
ssg76
g3168
sg69
(lp3179
S':'
asbag62
(g83
g64
NtRp3180
(dp3181
g67
(dp3182
sg76
g3168
sg69
(lp3183
g62
(g63
g64
NtRp3184
(dp3185
g67
(dp3186
g75
I3
ssg76
g3180
sg69
(lp3187
S''
asbasbasbag62
(g78
g64
NtRp3188
(dp3189
g67
(dp3190
sg76
g3124
sg69
(lp3191
g62
(g83
g64
NtRp3192
(dp3193
g67
(dp3194
g87
g88
ssg76
g3188
sg69
(lp3195
g339
asbag62
(g83
g64
NtRp3196
(dp3197
g67
(dp3198
g94
g95
ssg76
g3188
sg69
(lp3199
S':'
asbag62
(g83
g64
NtRp3200
(dp3201
g67
(dp3202
sg76
g3188
sg69
(lp3203
g62
(g63
g64
NtRp3204
(dp3205
g67
(dp3206
g75
I3
ssg76
g3200
sg69
(lp3207
S''
asbasbasbag62
(g78
g64
NtRp3208
(dp3209
g67
(dp3210
sg76
g3124
sg69
(lp3211
g62
(g83
g64
NtRp3212
(dp3213
g67
(dp3214
g87
g88
ssg76
g3208
sg69
(lp3215
g360
asbag62
(g83
g64
NtRp3216
(dp3217
g67
(dp3218
g94
g95
ssg76
g3208
sg69
(lp3219
S':'
asbag62
(g83
g64
NtRp3220
(dp3221
g67
(dp3222
sg76
g3208
sg69
(lp3223
g62
(g63
g64
NtRp3224
(dp3225
g67
(dp3226
g75
I3
ssg76
g3220
sg69
(lp3227
S''
asbasbasbag62
(g78
g64
NtRp3228
(dp3229
g67
(dp3230
sg76
g3124
sg69
(lp3231
g62
(g83
g64
NtRp3232
(dp3233
g67
(dp3234
g87
g88
ssg76
g3228
sg69
(lp3235
g381
asbag62
(g83
g64
NtRp3236
(dp3237
g67
(dp3238
g94
g95
ssg76
g3228
sg69
(lp3239
S':'
asbag62
(g83
g64
NtRp3240
(dp3241
g67
(dp3242
sg76
g3228
sg69
(lp3243
g62
(g63
g64
NtRp3244
(dp3245
g67
(dp3246
g75
I3
ssg76
g3240
sg69
(lp3247
S'/'
asbasbasbag62
(g78
g64
NtRp3248
(dp3249
g67
(dp3250
sg76
g3124
sg69
(lp3251
g62
(g83
g64
NtRp3252
(dp3253
g67
(dp3254
g87
g88
ssg76
g3248
sg69
(lp3255
g402
asbag62
(g83
g64
NtRp3256
(dp3257
g67
(dp3258
g94
g95
ssg76
g3248
sg69
(lp3259
S':'
asbag62
(g83
g64
NtRp3260
(dp3261
g67
(dp3262
sg76
g3248
sg69
(lp3263
g62
(g63
g64
NtRp3264
(dp3265
g67
(dp3266
g75
I3
ssg76
g3260
sg69
(lp3267
S''
asbasbasbag62
(g78
g64
NtRp3268
(dp3269
g67
(dp3270
sg76
g3124
sg69
(lp3271
g62
(g83
g64
NtRp3272
(dp3273
g67
(dp3274
g87
g88
ssg76
g3268
sg69
(lp3275
g423
asbag62
(g83
g64
NtRp3276
(dp3277
g67
(dp3278
g94
g95
ssg76
g3268
sg69
(lp3279
S':'
asbag62
(g83
g64
NtRp3280
(dp3281
g67
(dp3282
sg76
g3268
sg69
(lp3283
g62
(g63
g64
NtRp3284
(dp3285
g67
(dp3286
g75
I3
ssg76
g3280
sg69
(lp3287
S''
asbasbasbasbasbasbasbasbasbasbasbag62
(g78
g64
NtRp3288
(dp3289
g67
(dp3290
sg76
g3054
sg69
(lp3291
g62
(g83
g64
NtRp3292
(dp3293
g67
(dp3294
g87
g88
ssg76
g3288
sg69
(lp3295
S'delimiters'
p3296
asbag62
(g83
g64
NtRp3297
(dp3298
g67
(dp3299
g94
g95
ssg76
g3288
sg69
(lp3300
S':'
asbag62
(g83
g64
NtRp3301
(dp3302
g67
(dp3303
sg76
g3288
sg69
(lp3304
g62
(g63
g64
NtRp3305
(dp3306
g67
(dp3307
g75
I5
ssg76
g3301
sg69
(lp3308
g62
(g71
g64
NtRp3309
(dp3310
g67
(dp3311
g75
I4
ssg76
Nsg69
(lp3312
g62
(g78
g64
NtRp3313
(dp3314
g67
(dp3315
sg76
g3309
sg69
(lp3316
g62
(g83
g64
NtRp3317
(dp3318
g67
(dp3319
sg76
g3313
sg69
(lp3320
g62
(g63
g64
NtRp3321
(dp3322
g67
(dp3323
g75
I4
ssg76
g3317
sg69
(lp3324
S'{{'
p3325
asbasbasbag62
(g78
g64
NtRp3326
(dp3327
g67
(dp3328
sg76
g3309
sg69
(lp3329
g62
(g83
g64
NtRp3330
(dp3331
g67
(dp3332
sg76
g3326
sg69
(lp3333
g62
(g63
g64
NtRp3334
(dp3335
g67
(dp3336
g75
I4
ssg76
g3330
sg69
(lp3337
S'}}'
p3338
asbasbasbasbasbasbasbag62
(g78
g64
NtRp3339
(dp3340
g67
(dp3341
sg76
g3054
sg69
(lp3342
g62
(g83
g64
NtRp3343
(dp3344
g67
(dp3345
g87
g88
ssg76
g3339
sg69
(lp3346
S'files'
p3347
asbag62
(g83
g64
NtRp3348
(dp3349
g67
(dp3350
g94
g95
ssg76
g3339
sg69
(lp3351
S':'
asbag62
(g83
g64
NtRp3352
(dp3353
g67
(dp3354
sg76
g3339
sg69
(lp3355
g62
(g63
g64
NtRp3356
(dp3357
g67
(dp3358
g75
I5
ssg76
g3352
sg69
(lp3359
g62
(g71
g64
NtRp3360
(dp3361
g67
(dp3362
g75
I4
ssg76
Nsg69
(lp3363
sbasbasbasbag62
(g78
g64
NtRp3364
(dp3365
g67
(dp3366
sg76
g3054
sg69
(lp3367
g62
(g83
g64
NtRp3368
(dp3369
g67
(dp3370
g87
g88
ssg76
g3364
sg69
(lp3371
S'flash'
p3372
asbag62
(g83
g64
NtRp3373
(dp3374
g67
(dp3375
g94
g95
ssg76
g3364
sg69
(lp3376
S':'
asbag62
(g83
g64
NtRp3377
(dp3378
g67
(dp3379
sg76
g3364
sg69
(lp3380
g62
(g63
g64
NtRp3381
(dp3382
g67
(dp3383
g75
I5
ssg76
g3377
sg69
(lp3384
S''
asbasbasbag62
(g78
g64
NtRp3385
(dp3386
g67
(dp3387
sg76
g3054
sg69
(lp3388
g62
(g83
g64
NtRp3389
(dp3390
g67
(dp3391
g87
g88
ssg76
g3385
sg69
(lp3392
S'generic_patterns'
p3393
asbag62
(g83
g64
NtRp3394
(dp3395
g67
(dp3396
g94
g95
ssg76
g3385
sg69
(lp3397
S':'
asbag62
(g83
g64
NtRp3398
(dp3399
g67
(dp3400
sg76
g3385
sg69
(lp3401
g62
(g63
g64
NtRp3402
(dp3403
g67
(dp3404
g75
I5
ssg76
g3398
sg69
(lp3405
g62
(g71
g64
NtRp3406
(dp3407
g67
(dp3408
g75
I4
ssg76
Nsg69
(lp3409
g62
(g78
g64
NtRp3410
(dp3411
g67
(dp3412
sg76
g3406
sg69
(lp3413
g62
(g83
g64
NtRp3414
(dp3415
g67
(dp3416
sg76
g3410
sg69
(lp3417
g62
(g63
g64
NtRp3418
(dp3419
g67
(dp3420
g75
I4
ssg76
g3414
sg69
(lp3421
S'*'
asbasbasbasbasbasbasbag62
(g78
g64
NtRp3422
(dp3423
g67
(dp3424
sg76
g3054
sg69
(lp3425
g62
(g83
g64
NtRp3426
(dp3427
g67
(dp3428
g87
g88
ssg76
g3422
sg69
(lp3429
S'headers'
p3430
asbag62
(g83
g64
NtRp3431
(dp3432
g67
(dp3433
g94
g95
ssg76
g3422
sg69
(lp3434
S':'
asbag62
(g83
g64
NtRp3435
(dp3436
g67
(dp3437
sg76
g3422
sg69
(lp3438
g62
(g63
g64
NtRp3439
(dp3440
g67
(dp3441
g75
I5
ssg76
g3435
sg69
(lp3442
g62
(g71
g64
NtRp3443
(dp3444
g67
(dp3445
g75
I4
ssg76
Nsg69
(lp3446
g62
(g78
g64
NtRp3447
(dp3448
g67
(dp3449
sg76
g3443
sg69
(lp3450
g62
(g83
g64
NtRp3451
(dp3452
g67
(dp3453
g87
g88
ssg76
g3447
sg69
(lp3454
S'Cache-Control'
p3455
asbag62
(g83
g64
NtRp3456
(dp3457
g67
(dp3458
g94
g95
ssg76
g3447
sg69
(lp3459
S':'
asbag62
(g83
g64
NtRp3460
(dp3461
g67
(dp3462
sg76
g3447
sg69
(lp3463
g62
(g63
g64
NtRp3464
(dp3465
g67
(dp3466
g75
I4
ssg76
g3460
sg69
(lp3467
S'no-store, no-cache, must-revalidate, post-check=0, pre-check=0'
p3468
asbasbasbag62
(g78
g64
NtRp3469
(dp3470
g67
(dp3471
sg76
g3443
sg69
(lp3472
g62
(g83
g64
NtRp3473
(dp3474
g67
(dp3475
g87
g88
ssg76
g3469
sg69
(lp3476
S'Content-Type'
p3477
asbag62
(g83
g64
NtRp3478
(dp3479
g67
(dp3480
g94
g95
ssg76
g3469
sg69
(lp3481
S':'
asbag62
(g83
g64
NtRp3482
(dp3483
g67
(dp3484
sg76
g3469
sg69
(lp3485
g62
(g63
g64
NtRp3486
(dp3487
g67
(dp3488
g75
I4
ssg76
g3482
sg69
(lp3489
S'text/html; charset=utf-8'
p3490
asbasbasbag62
(g78
g64
NtRp3491
(dp3492
g67
(dp3493
sg76
g3443
sg69
(lp3494
g62
(g83
g64
NtRp3495
(dp3496
g67
(dp3497
g87
g88
ssg76
g3491
sg69
(lp3498
S'Expires'
p3499
asbag62
(g83
g64
NtRp3500
(dp3501
g67
(dp3502
g94
g95
ssg76
g3491
sg69
(lp3503
S':'
asbag62
(g83
g64
NtRp3504
(dp3505
g67
(dp3506
sg76
g3491
sg69
(lp3507
g62
(g63
g64
NtRp3508
(dp3509
g67
(dp3510
g75
I4
ssg76
g3504
sg69
(lp3511
S'Sun, 18 Mar 2012 23:00:27 GMT'
p3512
asbasbasbag62
(g78
g64
NtRp3513
(dp3514
g67
(dp3515
sg76
g3443
sg69
(lp3516
g62
(g83
g64
NtRp3517
(dp3518
g67
(dp3519
g87
g88
ssg76
g3513
sg69
(lp3520
S'Pragma'
p3521
asbag62
(g83
g64
NtRp3522
(dp3523
g67
(dp3524
g94
g95
ssg76
g3513
sg69
(lp3525
S':'
asbag62
(g83
g64
NtRp3526
(dp3527
g67
(dp3528
sg76
g3513
sg69
(lp3529
g62
(g63
g64
NtRp3530
(dp3531
g67
(dp3532
g75
I4
ssg76
g3526
sg69
(lp3533
S'no-cache'
p3534
asbasbasbag62
(g78
g64
NtRp3535
(dp3536
g67
(dp3537
sg76
g3443
sg69
(lp3538
g62
(g83
g64
NtRp3539
(dp3540
g67
(dp3541
g87
g88
ssg76
g3535
sg69
(lp3542
S'X-Powered-By'
p3543
asbag62
(g83
g64
NtRp3544
(dp3545
g67
(dp3546
g94
g95
ssg76
g3535
sg69
(lp3547
S':'
asbag62
(g83
g64
NtRp3548
(dp3549
g67
(dp3550
sg76
g3535
sg69
(lp3551
g62
(g63
g64
NtRp3552
(dp3553
g67
(dp3554
g75
I4
ssg76
g3548
sg69
(lp3555
S'web2py'
p3556
asbasbasbasbasbasbasbag62
(g78
g64
NtRp3557
(dp3558
g67
(dp3559
sg76
g3054
sg69
(lp3560
g62
(g83
g64
NtRp3561
(dp3562
g67
(dp3563
g87
g88
ssg76
g3557
sg69
(lp3564
S'menu'
p3565
asbag62
(g83
g64
NtRp3566
(dp3567
g67
(dp3568
g94
g95
ssg76
g3557
sg69
(lp3569
S':'
asbag62
(g83
g64
NtRp3570
(dp3571
g67
(dp3572
sg76
g3557
sg69
(lp3573
g62
(g63
g64
NtRp3574
(dp3575
g67
(dp3576
g75
I5
ssg76
g3570
sg69
(lp3577
g62
(g71
g64
NtRp3578
(dp3579
g67
(dp3580
g75
I4
ssg76
Nsg69
(lp3581
sbasbasbasbag62
(g78
g64
NtRp3582
(dp3583
g67
(dp3584
sg76
g3054
sg69
(lp3585
g62
(g83
g64
NtRp3586
(dp3587
g67
(dp3588
g87
g88
ssg76
g3582
sg69
(lp3589
S'meta'
p3590
asbag62
(g83
g64
NtRp3591
(dp3592
g67
(dp3593
g94
g95
ssg76
g3582
sg69
(lp3594
S':'
asbag62
(g83
g64
NtRp3595
(dp3596
g67
(dp3597
sg76
g3582
sg69
(lp3598
g62
(g63
g64
NtRp3599
(dp3600
g67
(dp3601
g75
I5
ssg76
g3595
sg69
(lp3602
g62
(g71
g64
NtRp3603
(dp3604
g67
(dp3605
g75
I4
ssg76
Nsg69
(lp3606
sbasbasbasbag62
(g78
g64
NtRp3607
(dp3608
g67
(dp3609
sg76
g3054
sg69
(lp3610
g62
(g83
g64
NtRp3611
(dp3612
g67
(dp3613
g87
g88
ssg76
g3607
sg69
(lp3614
S'postprocessing'
p3615
asbag62
(g83
g64
NtRp3616
(dp3617
g67
(dp3618
g94
g95
ssg76
g3607
sg69
(lp3619
S':'
asbag62
(g83
g64
NtRp3620
(dp3621
g67
(dp3622
sg76
g3607
sg69
(lp3623
g62
(g63
g64
NtRp3624
(dp3625
g67
(dp3626
g75
I5
ssg76
g3620
sg69
(lp3627
g62
(g71
g64
NtRp3628
(dp3629
g67
(dp3630
g75
I4
ssg76
Nsg69
(lp3631
sbasbasbasbag62
(g78
g64
NtRp3632
(dp3633
g67
(dp3634
sg76
g3054
sg69
(lp3635
g62
(g83
g64
NtRp3636
(dp3637
g67
(dp3638
g87
g88
ssg76
g3632
sg69
(lp3639
S'session_file'
p3640
asbag62
(g83
g64
NtRp3641
(dp3642
g67
(dp3643
g94
g95
ssg76
g3632
sg69
(lp3644
S':'
asbag62
(g83
g64
NtRp3645
(dp3646
g67
(dp3647
sg76
g3632
sg69
(lp3648
g62
(g63
g64
NtRp3649
(dp3650
g67
(dp3651
g75
I5
ssg76
g3645
sg69
(lp3652
S"<open file '/Users/robertdo/hiremeintech/applications/hiremeintech/sessions/127.0.0.1-0d2f28b7-34b4-40c4-87e2-cc4d3ea3bf8b', mode 'rb+' at 0x10dcfa6f0>"
p3653
asbasbasbag62
(g78
g64
NtRp3654
(dp3655
g67
(dp3656
sg76
g3054
sg69
(lp3657
g62
(g83
g64
NtRp3658
(dp3659
g67
(dp3660
g87
g88
ssg76
g3654
sg69
(lp3661
S'session_filename'
p3662
asbag62
(g83
g64
NtRp3663
(dp3664
g67
(dp3665
g94
g95
ssg76
g3654
sg69
(lp3666
S':'
asbag62
(g83
g64
NtRp3667
(dp3668
g67
(dp3669
sg76
g3654
sg69
(lp3670
g62
(g63
g64
NtRp3671
(dp3672
g67
(dp3673
g75
I5
ssg76
g3667
sg69
(lp3674
S'/Users/robertdo/hiremeintech/applications/hiremeintech/sessions/127.0.0.1-0d2f28b7-34b4-40c4-87e2-cc4d3ea3bf8b'
p3675
asbasbasbag62
(g78
g64
NtRp3676
(dp3677
g67
(dp3678
sg76
g3054
sg69
(lp3679
g62
(g83
g64
NtRp3680
(dp3681
g67
(dp3682
g87
g88
ssg76
g3676
sg69
(lp3683
S'session_id'
p3684
asbag62
(g83
g64
NtRp3685
(dp3686
g67
(dp3687
g94
g95
ssg76
g3676
sg69
(lp3688
S':'
asbag62
(g83
g64
NtRp3689
(dp3690
g67
(dp3691
sg76
g3676
sg69
(lp3692
g62
(g63
g64
NtRp3693
(dp3694
g67
(dp3695
g75
I5
ssg76
g3689
sg69
(lp3696
S'127.0.0.1-0d2f28b7-34b4-40c4-87e2-cc4d3ea3bf8b'
p3697
asbasbasbag62
(g78
g64
NtRp3698
(dp3699
g67
(dp3700
sg76
g3054
sg69
(lp3701
g62
(g83
g64
NtRp3702
(dp3703
g67
(dp3704
g87
g88
ssg76
g3698
sg69
(lp3705
S'session_id_name'
p3706
asbag62
(g83
g64
NtRp3707
(dp3708
g67
(dp3709
g94
g95
ssg76
g3698
sg69
(lp3710
S':'
asbag62
(g83
g64
NtRp3711
(dp3712
g67
(dp3713
sg76
g3698
sg69
(lp3714
g62
(g63
g64
NtRp3715
(dp3716
g67
(dp3717
g75
I5
ssg76
g3711
sg69
(lp3718
g3111
asbasbasbag62
(g78
g64
NtRp3719
(dp3720
g67
(dp3721
sg76
g3054
sg69
(lp3722
g62
(g83
g64
NtRp3723
(dp3724
g67
(dp3725
g87
g88
ssg76
g3719
sg69
(lp3726
S'session_locked'
p3727
asbag62
(g83
g64
NtRp3728
(dp3729
g67
(dp3730
g94
g95
ssg76
g3719
sg69
(lp3731
S':'
asbag62
(g83
g64
NtRp3732
(dp3733
g67
(dp3734
sg76
g3719
sg69
(lp3735
g62
(g63
g64
NtRp3736
(dp3737
g67
(dp3738
g75
I5
ssg76
g3732
sg69
(lp3739
g1661
asbasbasbag62
(g78
g64
NtRp3740
(dp3741
g67
(dp3742
sg76
g3054
sg69
(lp3743
g62
(g83
g64
NtRp3744
(dp3745
g67
(dp3746
g87
g88
ssg76
g3740
sg69
(lp3747
S'session_new'
p3748
asbag62
(g83
g64
NtRp3749
(dp3750
g67
(dp3751
g94
g95
ssg76
g3740
sg69
(lp3752
S':'
asbag62
(g83
g64
NtRp3753
(dp3754
g67
(dp3755
sg76
g3740
sg69
(lp3756
g62
(g63
g64
NtRp3757
(dp3758
g67
(dp3759
g75
I5
ssg76
g3753
sg69
(lp3760
g105
asbasbasbag62
(g78
g64
NtRp3761
(dp3762
g67
(dp3763
sg76
g3054
sg69
(lp3764
g62
(g83
g64
NtRp3765
(dp3766
g67
(dp3767
g87
g88
ssg76
g3761
sg69
(lp3768
S'status'
p3769
asbag62
(g83
g64
NtRp3770
(dp3771
g67
(dp3772
g94
g95
ssg76
g3761
sg69
(lp3773
S':'
asbag62
(g83
g64
NtRp3774
(dp3775
g67
(dp3776
sg76
g3761
sg69
(lp3777
g62
(g63
g64
NtRp3778
(dp3779
g67
(dp3780
g75
I5
ssg76
g3774
sg69
(lp3781
S'200'
p3782
asbasbasbag62
(g78
g64
NtRp3783
(dp3784
g67
(dp3785
sg76
g3054
sg69
(lp3786
g62
(g83
g64
NtRp3787
(dp3788
g67
(dp3789
g87
g88
ssg76
g3783
sg69
(lp3790
g2325
asbag62
(g83
g64
NtRp3791
(dp3792
g67
(dp3793
g94
g95
ssg76
g3783
sg69
(lp3794
S':'
asbag62
(g83
g64
NtRp3795
(dp3796
g67
(dp3797
sg76
g3783
sg69
(lp3798
g62
(g63
g64
NtRp3799
(dp3800
g67
(dp3801
g75
I5
ssg76
g3795
sg69
(lp3802
g2338
asbasbasbag62
(g78
g64
NtRp3803
(dp3804
g67
(dp3805
sg76
g3054
sg69
(lp3806
g62
(g83
g64
NtRp3807
(dp3808
g67
(dp3809
g87
g88
ssg76
g3803
sg69
(lp3810
S'view'
p3811
asbag62
(g83
g64
NtRp3812
(dp3813
g67
(dp3814
g94
g95
ssg76
g3803
sg69
(lp3815
S':'
asbag62
(g83
g64
NtRp3816
(dp3817
g67
(dp3818
sg76
g3803
sg69
(lp3819
g62
(g63
g64
NtRp3820
(dp3821
g67
(dp3822
g75
I5
ssg76
g3816
sg69
(lp3823
S'default/index.html'
p3824
asbasbasbasbasbsS'locals'
p3825
(dp3826
S'Service'
p3827
S"<class 'gluon.tools.Service'>"
p3828
sS'OBJECT'
p3829
S"<class 'gluon.html.OBJECT'>"
p3830
sS'SQLDB'
p3831
S"<class 'gluon.dal.DAL'>"
p3832
sg3014
S"<Storage {'last_query': 'db.jobs.id>0', '_formke...: {'version': '17.0.963.79', 'name': 'Chrome'}}}>"
p3833
sS'LINK'
p3834
S"<class 'gluon.html.LINK'>"
p3835
sS'BR'
p3836
S"<class 'gluon.html.BR'>"
p3837
sS'local_import'
p3838
S'<function <lambda>>'
p3839
sS'OPTGROUP'
p3840
S"<class 'gluon.html.OPTGROUP'>"
p3841
sS'LI'
p3842
S"<class 'gluon.html.LI'>"
p3843
sS'PRE'
p3844
S"<class 'gluon.html.PRE'>"
p3845
sS'IS_INT_IN_RANGE'
p3846
S"<class 'gluon.validators.IS_INT_IN_RANGE'>"
p3847
sS'IS_LOWER'
p3848
S"<class 'gluon.validators.IS_LOWER'>"
p3849
sS'IS_STRONG'
p3850
S"<class 'gluon.validators.IS_STRONG'>"
p3851
sS'cache'
p3852
S'<gluon.cache.Cache object>'
p3853
sS'IS_IN_DB'
p3854
S"<class 'gluon.validators.IS_IN_DB'>"
p3855
sS'TAG'
p3856
S'<gluon.html.__TAG__ object>'
p3857
sS'SQLField'
p3858
S"<class 'gluon.dal.Field'>"
p3859
sS'mail'
p3860
S'<gluon.tools.Mail object>'
p3861
sS'BODY'
p3862
S"<class 'gluon.html.BODY'>"
p3863
sS'IS_DATE_IN_RANGE'
p3864
S"<class 'gluon.validators.IS_DATE_IN_RANGE'>"
p3865
sS'IFRAME'
p3866
S"<class 'gluon.html.IFRAME'>"
p3867
sS'URL'
p3868
S'<function URL>'
p3869
sS'__file__'
p3870
S"'/Users/robertdo/hiremeintech/applications/hiremeintech/models/db.py'"
p3871
sS'db'
p3872
S"<DAL {'auth_event': <Table {'origin': <gluon.dal...key': <gluon.dal.Field object at 0x10e41fb90>}>}>"
p3873
sS'auth'
p3874
S'<gluon.tools.Auth object>'
p3875
sS'P'
S"<class 'gluon.html.P'>"
p3876
sS'TFOOT'
p3877
S"<class 'gluon.html.TFOOT'>"
p3878
sS'XHTML'
p3879
S"<class 'gluon.html.XHTML'>"
p3880
sS'ON'
p3881
g1661
sS'OL'
p3882
S"<class 'gluon.html.OL'>"
p3883
sS'TEXTAREA'
p3884
S"<class 'gluon.html.TEXTAREA'>"
p3885
sS'settings'
p3886
S"<Storage {'layout_theme': 'Default', 'subtitle':...l_server': 'localhost', 'login_method': 'local'}>"
p3887
sS'MENU'
p3888
S"<class 'gluon.html.MENU'>"
p3889
sS'EM'
p3890
S"<class 'gluon.html.EM'>"
p3891
sS'CODE'
p3892
S"<class 'gluon.html.CODE'>"
p3893
sS'HTTP'
p3894
S"<class 'gluon.http.HTTP'>"
p3895
sS'HR'
p3896
S"<class 'gluon.html.HR'>"
p3897
sS'IS_DATETIME'
p3898
S"<class 'gluon.validators.IS_DATETIME'>"
p3899
sS'Storage'
p3900
S"<class 'gluon.storage.Storage'>"
p3901
sS'STYLE'
p3902
S"<class 'gluon.html.STYLE'>"
p3903
sS'LABEL'
p3904
S"<class 'gluon.html.LABEL'>"
p3905
sS'META'
p3906
S"<class 'gluon.html.META'>"
p3907
sS'plugins'
p3908
S'<gluon.tools.PluginManager object>'
p3909
sS'SELECT'
p3910
S"<class 'gluon.html.SELECT'>"
p3911
sS'use_janrain'
p3912
S'<function use_janrain>'
p3913
sS'CENTER'
p3914
S"<class 'gluon.html.CENTER'>"
p3915
sS'prettydate'
p3916
S'<function prettydate>'
p3917
sS'Crud'
p3918
S"<class 'gluon.tools.Crud'>"
p3919
sS'Auth'
p3920
S"<class 'gluon.tools.Auth'>"
p3921
sS'__builtins__'
p3922
S"{'ArithmeticError': <type 'exceptions.ArithmeticError'>, 'AssertionError': <type 'exceptions.AssertionError'>, 'AttributeError': <type 'exceptions.AttributeError'>, 'BaseException': <type 'exceptions.BaseException'>, 'BufferError': <type 'exceptions.BufferError'>, 'BytesWarning': <type 'exceptions.BytesWarning'>, 'DeprecationWarning': <type 'exceptions.DeprecationWarning'>, 'EOFError': <type 'exceptions.EOFError'>, 'Ellipsis': Ellipsis, 'EnvironmentError': <type 'exceptions.EnvironmentError'>, ...}"
p3923
sS'HTML'
p3924
S"<class 'gluon.html.HTML'>"
p3925
sS'SQLFORM'
p3926
S"<class 'gluon.sqlhtml.SQLFORM'>"
p3927
sS'LOAD'
p3928
S'<function LOAD>'
p3929
sS'redirect'
p3930
S'<function redirect>'
p3931
sS'FIELDSET'
p3932
S"<class 'gluon.html.FIELDSET'>"
p3933
sS'IS_EQUAL_TO'
p3934
S"<class 'gluon.validators.IS_EQUAL_TO'>"
p3935
sS'embed64'
p3936
S'<function embed64>'
p3937
sS'IS_LIST_OF'
p3938
S"<class 'gluon.validators.IS_LIST_OF'>"
p3939
sS'INPUT'
p3940
S"<class 'gluon.html.INPUT'>"
p3941
sS'EMBED'
p3942
S"<class 'gluon.html.EMBED'>"
p3943
sS'FORM'
p3944
S"<class 'gluon.html.FORM'>"
p3945
sS'H2'
p3946
S"<class 'gluon.html.H2'>"
p3947
sS'H3'
p3948
S"<class 'gluon.html.H3'>"
p3949
sS'BUTTON'
p3950
S"<class 'gluon.html.BUTTON'>"
p3951
sS'H1'
p3952
S"<class 'gluon.html.H1'>"
p3953
sS'H6'
p3954
S"<class 'gluon.html.H6'>"
p3955
sS'H4'
p3956
S"<class 'gluon.html.H4'>"
p3957
sS'H5'
p3958
S"<class 'gluon.html.H5'>"
p3959
sS'UL'
p3960
S"<class 'gluon.html.UL'>"
p3961
sS'IS_UPPER'
p3962
S"<class 'gluon.validators.IS_UPPER'>"
p3963
sS'xmlescape'
p3964
S'<function xmlescape>'
p3965
sS'IS_TIME'
p3966
S"<class 'gluon.validators.IS_TIME'>"
p3967
sS'OPTION'
p3968
S"<class 'gluon.html.OPTION'>"
p3969
sS'TITLE'
p3970
S"<class 'gluon.html.TITLE'>"
p3971
sS'CRYPT'
p3972
S"<class 'gluon.validators.CRYPT'>"
p3973
sS'IS_EMPTY_OR'
p3974
S"<class 'gluon.validators.IS_EMPTY_OR'>"
p3975
sS'MARKMIN'
p3976
S"<class 'gluon.html.MARKMIN'>"
p3977
sS'__name__'
p3978
S"'__restricted__'"
p3979
sS'COL'
p3980
S"<class 'gluon.html.COL'>"
p3981
sS'service'
p3982
S'<gluon.tools.Service object>'
p3983
sS'SCRIPT'
p3984
S"<class 'gluon.html.SCRIPT'>"
p3985
sS'TABLE'
p3986
S"<class 'gluon.html.TABLE'>"
p3987
sS'IS_IPV4'
p3988
S"<class 'gluon.validators.IS_IPV4'>"
p3989
sS'IS_LENGTH'
p3990
S"<class 'gluon.validators.IS_LENGTH'>"
p3991
sS'XML'
p3992
S"<class 'gluon.html.XML'>"
p3993
sS'B'
S"<class 'gluon.html.B'>"
p3994
sS'IMG'
p3995
S"<class 'gluon.html.IMG'>"
p3996
sS'SQLTABLE'
p3997
S"<class 'gluon.sqlhtml.SQLTABLE'>"
p3998
sS'IS_MATCH'
p3999
S"<class 'gluon.validators.IS_MATCH'>"
p4000
sS'IS_ALPHANUMERIC'
p4001
S"<class 'gluon.validators.IS_ALPHANUMERIC'>"
p4002
sS'SPAN'
p4003
S"<class 'gluon.html.SPAN'>"
p4004
sS'IS_SLUG'
p4005
S"<class 'gluon.validators.IS_SLUG'>"
p4006
sS'CLEANUP'
p4007
S"<class 'gluon.validators.CLEANUP'>"
p4008
sS'IS_DATE'
p4009
S"<class 'gluon.validators.IS_DATE'>"
p4010
sS'IS_EMAIL'
p4011
S"<class 'gluon.validators.IS_EMAIL'>"
p4012
sS'IS_NOT_EMPTY'
p4013
S"<class 'gluon.validators.IS_NOT_EMPTY'>"
p4014
sS'IS_FLOAT_IN_RANGE'
p4015
S"<class 'gluon.validators.IS_FLOAT_IN_RANGE'>"
p4016
sS'BEAUTIFY'
p4017
S"<class 'gluon.html.BEAUTIFY'>"
p4018
sS'TBODY'
p4019
S"<class 'gluon.html.TBODY'>"
p4020
sS'CAT'
p4021
S"<class 'gluon.html.CAT'>"
p4022
sS'Field'
p4023
S"<class 'gluon.dal.Field'>"
p4024
sS'DIV'
p4025
S"<class 'gluon.html.DIV'>"
p4026
sS'LEGEND'
p4027
S"<class 'gluon.html.LEGEND'>"
p4028
sS'COLGROUP'
p4029
S"<class 'gluon.html.COLGROUP'>"
p4030
sS'DAL'
p4031
S"<class 'gluon.dal.DAL'>"
p4032
sS'TT'
p4033
S"<class 'gluon.html.TT'>"
p4034
sS'TR'
p4035
S"<class 'gluon.html.TR'>"
p4036
sS'__package__'
p4037
S'None'
p4038
sS'TH'
p4039
S"<class 'gluon.html.TH'>"
p4040
sS'TD'
p4041
S"<class 'gluon.html.TD'>"
p4042
sS'PluginManager'
p4043
S"<class 'gluon.tools.PluginManager'>"
p4044
sS'IS_URL'
p4045
S"<class 'gluon.validators.IS_URL'>"
p4046
sS'A'
S"<class 'gluon.html.A'>"
p4047
sS'HEAD'
p4048
S"<class 'gluon.html.HEAD'>"
p4049
sS'IS_DATETIME_IN_RANGE'
p4050
S"<class 'gluon.validators.IS_DATETIME_IN_RANGE'>"
p4051
sS'IS_IMAGE'
p4052
S"<class 'gluon.validators.IS_IMAGE'>"
p4053
sS'I'
S"<class 'gluon.html.I'>"
p4054
sS'crud'
p4055
S'<gluon.tools.Crud object>'
p4056
sS'IS_NOT_IN_DB'
p4057
S"<class 'gluon.validators.IS_NOT_IN_DB'>"
p4058
sg3049
S"<Storage {'status': 200, 'body': <cStringIO.Stri...140>, 'files': [], 'view': 'default/index.html'}>"
p4059
sS'THEAD'
p4060
S"<class 'gluon.html.THEAD'>"
p4061
sS'IS_NULL_OR'
p4062
S"<class 'gluon.validators.IS_EMPTY_OR'>"
p4063
sg61
S"<Storage {'body': <cStringIO.StringO object at 0..._vars': <Storage {}>, 'post_vars': <Storage {}>}>"
p4064
sS'IS_EXPR'
p4065
S"<class 'gluon.validators.IS_EXPR'>"
p4066
sS'IS_IN_SET'
p4067
S"<class 'gluon.validators.IS_IN_SET'>"
p4068
sS'IS_UPLOAD_FILENAME'
p4069
S"<class 'gluon.validators.IS_UPLOAD_FILENAME'>"
p4070
sS'IS_DECIMAL_IN_RANGE'
p4071
S"<class 'gluon.validators.IS_DECIMAL_IN_RANGE'>"
p4072
sS'T'
S'<gluon.languages.translator object>'
p4073
sssS'traceback'
p4074
S'Traceback (most recent call last):\n  File "/Users/robertdo/hiremeintech/gluon/restricted.py", line 205, in restricted\n    exec ccode in environment\n  File "/Users/robertdo/hiremeintech/applications/hiremeintech/models/db.py", line 129, in <module>\n    db.jobs.import_from_csv_file(open(\'data.csv\', \'r\'))\nIOError: [Errno 2] No such file or directory: \'data.csv\'\n'
p4075
s.