(dp1
S'name'
p2
(dp3
S'type'
p4
S'string'
p5
sS'sortable'
p6
I2
sS'sql'
p7
S'CHAR(512)'
p8
ssS'resume'
p9
(dp10
g4
S'upload'
p11
sg6
I5
sg7
S'CHAR(512)'
p12
ssS'id'
p13
(dp14
g4
g13
sg6
I1
sg7
S'INTEGER PRIMARY KEY AUTOINCREMENT'
p15
ssS'note'
p16
(dp17
g4
g5
sg6
I6
sg7
S'CHAR(512)'
p18
ssS'job'
p19
(dp20
g4
S'reference jobs'
p21
sg6
I4
sg7
S'INTEGER REFERENCES jobs(id) ON DELETE CASCADE'
p22
ssS'email'
p23
(dp24
g4
g5
sg6
I3
sg7
S'CHAR(512)'
p25
ss.